ccollections
OrderedDict
p1
((lp2
(lp3
S'_EOS_'
p4
aI0
aa(lp5
S'_OOV_'
p6
aI1
aa(lp7
S'is'
p8
aI2
aa(lp9
S'a'
aI3
aa(lp10
S'A'
aI4
aa(lp11
S'the'
p12
aI5
aa(lp13
S'man'
p14
aI6
aa(lp15
S'in'
p16
aI7
aa(lp17
S'and'
p18
aI8
aa(lp19
S'are'
p20
aI9
aa(lp21
S'on'
p22
aI10
aa(lp23
S'The'
p24
aI11
aa(lp25
S'woman'
p26
aI12
aa(lp27
S'of'
p28
aI13
aa(lp29
S'dog'
p30
aI14
aa(lp31
S'playing'
p32
aI15
aa(lp33
S'with'
p34
aI16
aa(lp35
S'no'
p36
aI17
aa(lp37
S'by'
p38
aI18
aa(lp39
S'Two'
p40
aI19
aa(lp41
S'There'
p42
aI20
aa(lp43
S'person'
p44
aI21
aa(lp45
S'being'
p46
aI22
aa(lp47
S'standing'
p48
aI23
aa(lp49
S'boy'
p50
aI24
aa(lp51
S'girl'
p52
aI25
aa(lp53
S'white'
p54
aI26
aa(lp55
S'at'
p56
aI27
aa(lp57
S'wearing'
p58
aI28
aa(lp59
S'black'
p60
aI29
aa(lp61
S'running'
p62
aI30
aa(lp63
S'an'
p64
aI31
aa(lp65
S'sitting'
p66
aI32
aa(lp67
S'water'
p68
aI33
aa(lp69
S'into'
p70
aI34
aa(lp71
S','
aI35
aa(lp72
S'jumping'
p73
aI36
aa(lp74
S'riding'
p75
aI37
aa(lp76
S'brown'
p77
aI38
aa(lp78
S'people'
p79
aI39
aa(lp80
S'not'
p81
aI40
aa(lp82
S'guitar'
p83
aI41
aa(lp84
S'young'
p85
aI42
aa(lp86
S'walking'
p87
aI43
aa(lp88
S'ball'
p89
aI44
aa(lp90
S'to'
p91
aI45
aa(lp92
S'grass'
p93
aI46
aa(lp94
S'red'
p95
aI47
aa(lp96
S'blue'
p97
aI48
aa(lp98
S'looking'
p99
aI49
aa(lp100
S'men'
p101
aI50
aa(lp102
S'through'
p103
aI51
aa(lp104
S'cutting'
p105
aI52
aa(lp106
S'dancing'
p107
aI53
aa(lp108
S'slicing'
p109
aI54
aa(lp110
S'some'
p111
aI55
aa(lp112
S'holding'
p113
aI56
aa(lp114
S'near'
p115
aI57
aa(lp116
S'front'
p117
aI58
aa(lp118
S'little'
p119
aI59
aa(lp120
S'down'
p121
aI60
aa(lp122
S'bike'
p123
aI61
aa(lp124
S'green'
p125
aI62
aa(lp126
S'child'
p127
aI63
aa(lp128
S'small'
p129
aI64
aa(lp130
S'shirt'
p131
aI65
aa(lp132
S'group'
p133
aI66
aa(lp134
S'for'
p135
aI67
aa(lp136
S'which'
p137
aI68
aa(lp138
S'horse'
p139
aI69
aa(lp140
S'dogs'
p141
aI70
aa(lp142
S'up'
p143
aI71
aa(lp144
S'cat'
p145
aI72
aa(lp146
S'from'
p147
aI73
aa(lp148
S'large'
p149
aI74
aa(lp150
S'car'
p151
aI75
aa(lp152
S'snow'
p153
aI76
aa(lp154
S'beach'
p155
aI77
aa(lp156
S'yellow'
p157
aI78
aa(lp158
S'over'
p159
aI79
aa(lp160
S'children'
p161
aI80
aa(lp162
S'Some'
p163
aI81
aa(lp164
S'its'
p165
aI82
aa(lp166
S'hat'
p167
aI83
aa(lp168
S'his'
p169
aI84
aa(lp170
S'eating'
p171
aI85
aa(lp172
S'two'
p173
aI86
aa(lp174
S'that'
p175
aI87
aa(lp176
S'air'
p177
aI88
aa(lp178
S'singing'
p179
aI89
aa(lp180
S'field'
p181
aI90
aa(lp182
S'her'
p183
aI91
aa(lp184
S'putting'
p185
aI92
aa(lp186
S'climbing'
p187
aI93
aa(lp188
S'onion'
p189
aI94
aa(lp190
S'camera'
p191
aI95
aa(lp192
S'Someone'
p193
aI96
aa(lp194
S'An'
p195
aI97
aa(lp196
S'bowl'
p197
aI98
aa(lp198
S'off'
p199
aI99
aa(lp200
S'who'
p201
aI100
aa(lp202
S'potato'
p203
aI101
aa(lp204
S'wall'
p205
aI102
aa(lp206
S'one'
p207
aI103
aa(lp208
S'boys'
p209
aI104
aa(lp210
S'lady'
p211
aI105
aa(lp212
S'outside'
p213
aI106
aa(lp214
S'doing'
p215
aI107
aa(lp216
S'soccer'
p217
aI108
aa(lp218
S'tree'
p219
aI109
aa(lp220
S'Three'
p221
aI110
aa(lp222
S'flute'
p223
aI111
aa(lp224
S'dirt'
p225
aI112
aa(lp226
S'baby'
p227
aI113
aa(lp228
S'One'
p229
aI114
aa(lp230
S'rope'
p231
aI115
aa(lp232
S'another'
p233
aI116
aa(lp234
S'street'
p235
aI117
aa(lp236
S'motorcycle'
p237
aI118
aa(lp238
S'other'
p239
aI119
aa(lp240
S'next'
p241
aI120
aa(lp242
S'bicycle'
p243
aI121
aa(lp244
S'road'
p245
aI122
aa(lp246
S'piano'
p247
aI123
aa(lp248
S'rock'
p249
aI124
aa(lp250
S'park'
p251
aI125
aa(lp252
S'around'
p253
aI126
aa(lp254
S'talking'
p255
aI127
aa(lp256
S'women'
p257
aI128
aa(lp258
S'kids'
p259
aI129
aa(lp260
S'mouth'
p261
aI130
aa(lp262
S'eggs'
p263
aI131
aa(lp264
S'out'
p265
aI132
aa(lp266
S'lying'
p267
aI133
aa(lp268
S'swimming'
p269
aI134
aa(lp270
S'pink'
p271
aI135
aa(lp272
S'pool'
p273
aI136
aa(lp274
S'jacket'
p275
aI137
aa(lp276
S'purple'
p277
aI138
aa(lp278
S'toy'
p279
aI139
aa(lp280
S'played'
p281
aI140
aa(lp282
S'kid'
p283
aI141
aa(lp284
S'across'
p285
aI142
aa(lp286
S'performing'
p287
aI143
aa(lp288
S'hill'
p289
aI144
aa(lp290
S'carrying'
p291
aI145
aa(lp292
S'player'
p293
aI146
aa(lp294
S'football'
p295
aI147
aa(lp296
S'behind'
p297
aI148
aa(lp298
S'hair'
p299
aI149
aa(lp300
S'pot'
p301
aI150
aa(lp302
S'fighting'
p303
aI151
aa(lp304
S'chasing'
p305
aI152
aa(lp306
S'meat'
p307
aI153
aa(lp308
S'big'
p309
aI154
aa(lp310
S"'t"
p311
aI155
aa(lp312
S'watching'
p313
aI156
aa(lp314
S'People'
p315
aI157
aa(lp316
S'trick'
p317
aI158
aa(lp318
S'taking'
p319
aI159
aa(lp320
S'tennis'
p321
aI160
aa(lp322
S'along'
p323
aI161
aa(lp324
S'table'
p325
aI162
aa(lp326
S'race'
p327
aI163
aa(lp328
S'animal'
p329
aI164
aa(lp330
S'isn'
p331
aI165
aa(lp332
S'track'
p333
aI166
aa(lp334
S'ground'
p335
aI167
aa(lp336
S'sand'
p337
aI168
aa(lp338
S'top'
p339
aI169
aa(lp340
S'ocean'
p341
aI170
aa(lp342
S'peeling'
p343
aI171
aa(lp344
S'rocky'
p345
aI172
aa(lp346
S'chopping'
p347
aI173
aa(lp348
S'crowd'
p349
aI174
aa(lp350
S'Four'
p351
aI175
aa(lp352
S'hand'
p353
aI176
aa(lp354
S'area'
p355
aI177
aa(lp356
S"'s"
p357
aI178
aa(lp358
S'has'
p359
aI179
aa(lp360
S'colored'
p361
aI180
aa(lp362
S'bridge'
p363
aI181
aa(lp364
S'keyboard'
p365
aI182
aa(lp366
S'uniform'
p367
aI183
aa(lp368
S'each'
p369
aI184
aa(lp370
S'dressed'
p371
aI185
aa(lp372
S'pouring'
p373
aI186
aa(lp374
S'posing'
p375
aI187
aa(lp376
S'orange'
p377
aI188
aa(lp378
S'outdoors'
p379
aI189
aa(lp380
S'made'
p381
aI190
aa(lp382
S'racing'
p383
aI191
aa(lp384
S'together'
p385
aI192
aa(lp386
S'making'
p387
aI193
aa(lp388
S'beside'
p389
aI194
aa(lp390
S'driving'
p391
aI195
aa(lp392
S'food'
p393
aI196
aa(lp394
S'fish'
p395
aI197
aa(lp396
S'girls'
p397
aI198
aa(lp398
S'hands'
p399
aI199
aa(lp400
S'piece'
p401
aI200
aa(lp402
S'stage'
p403
aI201
aa(lp404
S'full'
p405
aI202
aa(lp406
S'river'
p407
aI203
aa(lp408
S'coat'
p409
aI204
aa(lp410
S'covered'
p411
aI205
aa(lp412
S'monkey'
p413
aI206
aa(lp414
S'city'
p415
aI207
aa(lp416
S'drinking'
p417
aI208
aa(lp418
S'snowy'
p419
aI209
aa(lp420
S'sidewalk'
p421
aI210
aa(lp422
S'sunglasses'
p423
aI211
aa(lp424
S'smiling'
p425
aI212
aa(lp426
S'building'
p427
aI213
aa(lp428
S'light'
p429
aI214
aa(lp430
S'game'
p431
aI215
aa(lp432
S'rocks'
p433
aI216
aa(lp434
S'away'
p435
aI217
aa(lp436
S'rider'
p437
aI218
aa(lp438
S'getting'
p439
aI219
aa(lp440
S'catching'
p441
aI220
aa(lp442
S'colorful'
p443
aI221
aa(lp444
S'yard'
p445
aI222
aa(lp446
S'background'
p447
aI223
aa(lp448
S'bench'
p449
aI224
aa(lp450
S'tomato'
p451
aI225
aa(lp452
S'face'
p453
aI226
aa(lp454
S'bird'
p455
aI227
aa(lp456
S'pulling'
p457
aI228
aa(lp458
S'oil'
p459
aI229
aa(lp460
S'room'
p461
aI230
aa(lp462
S'helmet'
p463
aI231
aa(lp464
S'ridden'
p465
aI232
aa(lp466
S'garlic'
p467
aI233
aa(lp468
S'sliced'
p469
aI234
aa(lp470
S'frying'
p471
aI235
aa(lp472
S'rolling'
p473
aI236
aa(lp474
S'carrot'
p475
aI237
aa(lp476
S'side'
p477
aI238
aa(lp478
S'throwing'
p479
aI239
aa(lp480
S'pan'
p481
aI240
aa(lp482
S'knife'
p483
aI241
aa(lp484
S'bread'
p485
aI242
aa(lp486
S'grey'
p487
aI243
aa(lp488
S'inside'
p489
aI244
aa(lp490
S'cut'
p491
aI245
aa(lp492
S'butter'
p493
aI246
aa(lp494
S'wood'
p495
aI247
aa(lp496
S'pieces'
p497
aI248
aa(lp498
S'Nobody'
p499
aI249
aa(lp500
S'kicking'
p501
aI250
aa(lp502
S'stirring'
p503
aI251
aa(lp504
S'cooking'
p505
aI252
aa(lp506
S'pants'
p507
aI253
aa(lp508
S'leaves'
p509
aI254
aa(lp510
S'opening'
p511
aI255
aa(lp512
S'against'
p513
aI256
aa(lp514
S'wooden'
p515
aI257
aa(lp516
S'drawing'
p517
aI258
aa(lp518
S'waterfall'
p519
aI259
aa(lp520
S'gun'
p521
aI260
aa(lp522
S'sandy'
p523
aI261
aa(lp524
S'Several'
p525
aI262
aa(lp526
S'box'
p527
aI263
aa(lp528
S'motorbike'
p529
aI264
aa(lp530
S'laughing'
p531
aI265
aa(lp532
S'sign'
p533
aI266
aa(lp534
S'shirtless'
p535
aI267
aa(lp536
S'striped'
p537
aI268
aa(lp538
S'under'
p539
aI269
aa(lp540
S'container'
p541
aI270
aa(lp542
S'mountain'
p543
aI271
aa(lp544
S'onto'
p545
aI272
aa(lp546
S'lake'
p547
aI273
aa(lp548
S'tan'
p549
aI274
aa(lp550
S'machine'
p551
aI275
aa(lp552
S'phone'
p553
aI276
aa(lp554
S'something'
p555
aI277
aa(lp556
S'it'
p557
aI278
aa(lp558
S'them'
p559
aI279
aa(lp560
S'boiling'
p561
aI280
aa(lp562
S'using'
p563
aI281
aa(lp564
S'flying'
p565
aI282
aa(lp566
S'old'
p567
aI283
aa(lp568
S'lawn'
p569
aI284
aa(lp570
S'trunk'
p571
aI285
aa(lp572
S'cracking'
p573
aI286
aa(lp574
S'path'
p575
aI287
aa(lp576
S'mud'
p577
aI288
aa(lp578
S'their'
p579
aI289
aa(lp580
S'reading'
p581
aI290
aa(lp582
S'milk'
p583
aI291
aa(lp584
S'instrument'
p585
aI292
aa(lp586
S'three'
p587
aI293
aa(lp588
S'paper'
p589
aI294
aa(lp590
S'gear'
p591
aI295
aa(lp592
S'high'
p593
aI296
aa(lp594
S'bottle'
p595
aI297
aa(lp596
S'sword'
p597
aI298
aa(lp598
S'fence'
p599
aI299
aa(lp600
S'tiger'
p601
aI300
aa(lp602
S'surfer'
p603
aI301
aa(lp604
S'body'
p605
aI302
aa(lp606
S'goal'
p607
aI303
aa(lp608
S'dress'
p609
aI304
aa(lp610
S'quickly'
p611
aI305
aa(lp612
S'stone'
p613
aI306
aa(lp614
S'players'
p615
aI307
aa(lp616
S'head'
p617
aI308
aa(lp618
S'falling'
p619
aI309
aa(lp620
S'Asian'
p621
aI310
aa(lp622
S'wave'
p623
aI311
aa(lp624
S'back'
p625
aI312
aa(lp626
S'mixing'
p627
aI313
aa(lp628
S'waiting'
p629
aI314
aa(lp630
S'leaning'
p631
aI315
aa(lp632
S'couch'
p633
aI316
aa(lp634
S'violin'
p635
aI317
aa(lp636
S'.'
aI318
aa(lp637
S'rhino'
p638
aI319
aa(lp639
S'gray'
p640
aI320
aa(lp641
S'ice'
p642
aI321
aa(lp643
S'cyclist'
p644
aI322
aa(lp645
S'banana'
p646
aI323
aa(lp647
S'splashing'
p648
aI324
aa(lp649
S'calendar'
p650
aI325
aa(lp651
S'dyed'
p652
aI326
aa(lp653
S'jump'
p654
aI327
aa(lp655
S'suit'
p656
aI328
aa(lp657
S'fountain'
p658
aI329
aa(lp659
S'panda'
p660
aI330
aa(lp661
S'blond'
p662
aI331
aa(lp663
S'plastic'
p664
aI332
aa(lp665
S'family'
p666
aI333
aa(lp667
S'pencil'
p668
aI334
aa(lp669
S'grassy'
p670
aI335
aa(lp671
S'golden'
p672
aI336
aa(lp673
S'forest'
p674
aI337
aa(lp675
S'Five'
p676
aI338
aa(lp677
S'sliding'
p678
aI339
aa(lp679
S'ceiling'
p680
aI340
aa(lp681
S'jersey'
p682
aI341
aa(lp683
S'practicing'
p684
aI342
aa(lp685
S'pushing'
p686
aI343
aa(lp687
S'lot'
p688
aI344
aa(lp689
S'clothes'
p690
aI345
aa(lp691
S'shorts'
p692
aI346
aa(lp693
S'stick'
p694
aI347
aa(lp695
S'tail'
p696
aI348
aa(lp697
S'cheese'
p698
aI349
aa(lp699
S'slide'
p700
aI350
aa(lp701
S'resting'
p702
aI351
aa(lp703
S'going'
p704
aI352
aa(lp705
S'speaking'
p706
aI353
aa(lp707
S'parking'
p708
aI354
aa(lp709
S'puddle'
p710
aI355
aa(lp711
S'bag'
p712
aI356
aa(lp713
S'trees'
p714
aI357
aa(lp715
S'still'
p716
aI358
aa(lp717
S'trampoline'
p718
aI359
aa(lp719
S'couple'
p720
aI360
aa(lp721
S'picking'
p722
aI361
aa(lp723
S'jeep'
p724
aI362
aa(lp725
S'waves'
p726
aI363
aa(lp727
S'ramp'
p728
aI364
aa(lp729
S'pointing'
p730
aI365
aa(lp731
S'guy'
p732
aI366
aa(lp733
S'pizza'
p734
aI367
aa(lp735
S'bikers'
p736
aI368
aa(lp737
S'dark'
p738
aI369
aa(lp739
S'snowboarder'
p740
aI370
aa(lp741
S'tall'
p742
aI371
aa(lp743
S'paint'
p744
aI372
aa(lp745
S'biting'
p746
aI373
aa(lp747
S'arms'
p748
aI374
aa(lp749
S'floor'
p750
aI375
aa(lp751
S'between'
p752
aI376
aa(lp753
S'onions'
p754
aI377
aa(lp755
S'vegetables'
p756
aI378
aa(lp757
S'snake'
p758
aI379
aa(lp759
S'surfboard'
p760
aI380
aa(lp761
S'bikini'
p762
aI381
aa(lp763
S'writing'
p764
aI382
aa(lp765
S'ingredients'
p766
aI383
aa(lp767
S'noodles'
p768
aI384
aa(lp769
S'few'
p770
aI385
aa(lp771
S'bicyclist'
p772
aI386
aa(lp773
S'train'
p774
aI387
aa(lp775
S'crowded'
p776
aI388
aa(lp777
S'statue'
p778
aI389
aa(lp779
S'close'
p780
aI390
aa(lp781
S'scooter'
p782
aI391
aa(lp783
S'makeup'
p784
aI392
aa(lp785
S't-shirt'
p786
aI393
aa(lp787
S'leaping'
p788
aI394
aa(lp789
S'break'
p790
aI395
aa(lp791
S'removing'
p792
aI396
aa(lp793
S'day'
p794
aI397
aa(lp795
S'costumes'
p796
aI398
aa(lp797
S'nose'
p798
aI399
aa(lp799
S'band'
p800
aI400
aa(lp801
S'egg'
p802
aI401
aa(lp803
S'edge'
p804
aI402
aa(lp805
S'skateboard'
p806
aI403
aa(lp807
S'chair'
p808
aI404
aa(lp809
S'landing'
p810
aI405
aa(lp811
S'father'
p812
aI406
aa(lp813
S'soda'
p814
aI407
aa(lp815
S'adults'
p816
aI408
aa(lp817
S'skating'
p818
aI409
aa(lp819
S'fur'
p820
aI410
aa(lp821
S'uniforms'
p822
aI411
aa(lp823
S'fishing'
p824
aI412
aa(lp825
S'preparing'
p826
aI413
aa(lp827
S'mushrooms'
p828
aI414
aa(lp829
S'carefully'
p830
aI415
aa(lp831
S'motocross'
p832
aI416
aa(lp833
S'surrounded'
p834
aI417
aa(lp835
S'bed'
p836
aI418
aa(lp837
S'rain'
p838
aI419
aa(lp839
S'ears'
p840
aI420
aa(lp841
S'cleaning'
p842
aI421
aa(lp843
S'funny'
p844
aI422
aa(lp845
S'held'
p846
aI423
aa(lp847
S'surfing'
p848
aI424
aa(lp849
S'airborne'
p850
aI425
aa(lp851
S'wheel'
p852
aI426
aa(lp853
S'cage'
p854
aI427
aa(lp855
S'kangaroo'
p856
aI428
aa(lp857
S'wet'
p858
aI429
aa(lp859
S'trail'
p860
aI430
aa(lp861
S'happily'
p862
aI431
aa(lp863
S'seasoning'
p864
aI432
aa(lp865
S'cheerleaders'
p866
aI433
aa(lp867
S'hanging'
p868
aI434
aa(lp869
S'biker'
p870
aI435
aa(lp871
S'very'
p872
aI436
aa(lp873
S'jeans'
p874
aI437
aa(lp875
S'crouching'
p876
aI438
aa(lp877
S'slowly'
p878
aI439
aa(lp879
S'ledge'
p880
aI440
aa(lp881
S'window'
p882
aI441
aa(lp883
S'deer'
p884
aI442
aa(lp885
S'after'
p886
aI443
aa(lp887
S'wheelie'
p888
aI444
aa(lp889
S'suitcases'
p890
aI445
aa(lp891
S'umbrella'
p892
aI446
aa(lp893
S'dropping'
p894
aI447
aa(lp895
S'drums'
p896
aI448
aa(lp897
S'No'
p898
aI449
aa(lp899
S'bmx'
p900
aI450
aa(lp901
S'cliff'
p902
aI451
aa(lp903
S'microphone'
p904
aI452
aa(lp905
S'dirty'
p906
aI453
aa(lp907
S'dicing'
p908
aI454
aa(lp909
S'boat'
p910
aI455
aa(lp911
S'view'
p912
aI456
aa(lp913
S'pond'
p914
aI457
aa(lp915
S'can'
p916
aI458
aa(lp917
S'axe'
p918
aI459
aa(lp919
S'email'
p920
aI460
aa(lp921
S'officer'
p922
aI461
aa(lp923
S'showing'
p924
aI462
aa(lp925
S'muddy'
p926
aI463
aa(lp927
S'recklessly'
p928
aI464
aa(lp929
S'slices'
p930
aI465
aa(lp931
S'picture'
p932
aI466
aa(lp933
S'harp'
p934
aI467
aa(lp935
S'clothing'
p936
aI468
aa(lp937
S'sky'
p938
aI469
aa(lp939
S'frog'
p940
aI470
aa(lp941
S'glasses'
p942
aI471
aa(lp943
S'clouds'
p944
aI472
aa(lp945
S'door'
p946
aI473
aa(lp947
S'moving'
p948
aI474
aa(lp949
S'shaking'
p950
aI475
aa(lp951
S'cats'
p952
aI476
aa(lp953
S'baseball'
p954
aI477
aa(lp955
S'cars'
p956
aI478
aa(lp957
S'leather'
p958
aI479
aa(lp959
S'lounging'
p960
aI480
aa(lp961
S'breaking'
p962
aI481
aa(lp963
S'crossing'
p964
aI482
aa(lp965
S'bamboo'
p966
aI483
aa(lp967
S'staring'
p968
aI484
aa(lp969
S'legs'
p970
aI485
aa(lp971
S'empty'
p972
aI486
aa(lp973
S'cowboy'
p974
aI487
aa(lp975
S'sticking'
p976
aI488
aa(lp977
S'swing'
p978
aI489
aa(lp979
S'structure'
p980
aI490
aa(lp981
S'pork'
p982
aI491
aa(lp983
S'blanket'
p984
aI492
aa(lp985
S'mouse'
p986
aI493
aa(lp987
S'okra'
p988
aI494
aa(lp989
S'beads'
p990
aI495
aa(lp991
S'skillet'
p992
aI496
aa(lp993
S'roof'
p994
aI497
aa(lp995
S'octopus'
p996
aI498
aa(lp997
S'barking'
p998
aI499
aa(lp999
S'both'
p1000
aI500
aa(lp1001
S'leash'
p1002
aI501
aa(lp1003
S'pen'
p1004
aI502
aa(lp1005
S'bunny'
p1006
aI503
aa(lp1007
S'shore'
p1008
aI504
aa(lp1009
S'arm'
p1010
aI505
aa(lp1011
S'nail'
p1012
aI506
aa(lp1013
S'oriental'
p1014
aI507
aa(lp1015
S'leaving'
p1016
aI508
aa(lp1017
S'students'
p1018
aI509
aa(lp1019
S'operating'
p1020
aI510
aa(lp1021
S'strip'
p1022
aI511
aa(lp1023
S'house'
p1024
aI512
aa(lp1025
S'bride'
p1026
aI513
aa(lp1027
S'licking'
p1028
aI514
aa(lp1029
S'biking'
p1030
aI515
aa(lp1031
S'recruits'
p1032
aI516
aa(lp1033
S'hitting'
p1034
aI517
aa(lp1035
S'restaurant'
p1036
aI518
aa(lp1037
S'tables'
p1038
aI519
aa(lp1039
S'topless'
p1040
aI520
aa(lp1041
S'mowing'
p1042
aI521
aa(lp1043
S'sunny'
p1044
aI522
aa(lp1045
S'crocodile'
p1046
aI523
aa(lp1047
S'raising'
p1048
aI524
aa(lp1049
S'night'
p1050
aI525
aa(lp1051
S'seated'
p1052
aI526
aa(lp1053
S'chop'
p1054
aI527
aa(lp1055
S'tossing'
p1056
aI528
aa(lp1057
S'bunch'
p1058
aI529
aa(lp1059
S'cow'
p1060
aI530
aa(lp1061
S'bull'
p1062
aI531
aa(lp1063
S'shallow'
p1064
aI532
aa(lp1065
S'net'
p1066
aI533
aa(lp1067
S'bouncing'
p1068
aI534
aa(lp1069
S'tricks'
p1070
aI535
aa(lp1071
S'electric'
p1072
aI536
aa(lp1073
S'keyboards'
p1074
aI537
aa(lp1075
S'puppy'
p1076
aI538
aa(lp1077
S'swim'
p1078
aI539
aa(lp1079
S'electronic'
p1080
aI540
aa(lp1081
S'trumpet'
p1082
aI541
aa(lp1083
S'clown'
p1084
aI542
aa(lp1085
S'chef'
p1086
aI543
aa(lp1087
S'snowboarding'
p1088
aI544
aa(lp1089
S'kittens'
p1090
aI545
aa(lp1091
S'mother'
p1092
aI546
aa(lp1093
S'chairs'
p1094
aI547
aa(lp1095
S'teenage'
p1096
aI548
aa(lp1097
S'built'
p1098
aI549
aa(lp1099
S'used'
p1100
aI550
aa(lp1101
S'acoustic'
p1102
aI551
aa(lp1103
S'hurdle'
p1104
aI552
aa(lp1105
S'sun'
p1106
aI553
aa(lp1107
S'eyes'
p1108
aI554
aa(lp1109
S'beating'
p1110
aI555
aa(lp1111
S'him'
p1112
aI556
aa(lp1113
S'potatoes'
p1114
aI557
aa(lp1115
S'same'
p1116
aI558
aa(lp1117
S'hiking'
p1118
aI559
aa(lp1119
S'tapping'
p1120
aI560
aa(lp1121
S'raft'
p1122
aI561
aa(lp1123
S'knocking'
p1124
aI562
aa(lp1125
S'blonde'
p1126
aI563
aa(lp1127
S'lemur'
p1128
aI564
aa(lp1129
S'cart'
p1130
aI565
aa(lp1131
S'hard'
p1132
aI566
aa(lp1133
S'shooting'
p1134
aI567
aa(lp1135
S'scissors'
p1136
aI568
aa(lp1137
S'skateboarder'
p1138
aI569
aa(lp1139
S'money'
p1140
aI570
aa(lp1141
S'eaten'
p1142
aI571
aa(lp1143
S'corner'
p1144
aI572
aa(lp1145
S'peeled'
p1146
aI573
aa(lp1147
S'kitten'
p1148
aI574
aa(lp1149
S'vehicle'
p1150
aI575
aa(lp1151
S'motorcyclist'
p1152
aI576
aa(lp1153
S'long'
p1154
aI577
aa(lp1155
S'boot'
p1156
aI578
aa(lp1157
S'barefoot'
p1158
aI579
aa(lp1159
S'feeding'
p1160
aI580
aa(lp1161
S'pepper'
p1162
aI581
aa(lp1163
S'swiftly'
p1164
aI582
aa(lp1165
S'adding'
p1166
aI583
aa(lp1167
S'above'
p1168
aI584
aa(lp1169
S'broccoli'
p1170
aI585
aa(lp1171
S'wooded'
p1172
aI586
aa(lp1173
S'herd'
p1174
aI587
aa(lp1175
S'placing'
p1176
aI588
aa(lp1177
S'hole'
p1178
aI589
aa(lp1179
S'adult'
p1180
aI590
aa(lp1181
S'shirts'
p1182
aI591
aa(lp1183
S'kitchen'
p1184
aI592
aa(lp1185
S'approaching'
p1186
aI593
aa(lp1187
S'platform'
p1188
aI594
aa(lp1189
S'toddler'
p1190
aI595
aa(lp1191
S'applying'
p1192
aI596
aa(lp1193
S'sauce'
p1194
aI597
aa(lp1195
S'gym'
p1196
aI598
aa(lp1197
S'boxing'
p1198
aI599
aa(lp1199
S'wading'
p1200
aI600
aa(lp1201
S'tattoo'
p1202
aI601
aa(lp1203
S'vegetable'
p1204
aI602
aa(lp1205
S'packing'
p1206
aI603
aa(lp1207
S'glass'
p1208
aI604
aa(lp1209
S'stream'
p1210
aI605
aa(lp1211
S'daughter'
p1212
aI606
aa(lp1213
S'worn'
p1214
aI607
aa(lp1215
S'knees'
p1216
aI608
aa(lp1217
S'swinging'
p1218
aI609
aa(lp1219
S'studying'
p1220
aI610
aa(lp1221
S'target'
p1222
aI611
aa(lp1223
S'costume'
p1224
aI612
aa(lp1225
S'open'
p1226
aI613
aa(lp1227
S'reindeer'
p1228
aI614
aa(lp1229
S'court'
p1230
aI615
aa(lp1231
S'frisbee'
p1232
aI616
aa(lp1233
S'whisk'
p1234
aI617
aa(lp1235
S'having'
p1236
aI618
aa(lp1237
S'device'
p1238
aI619
aa(lp1239
S'military'
p1240
aI620
aa(lp1241
S'spread'
p1242
aI621
aa(lp1243
S'scarf'
p1244
aI622
aa(lp1245
S'fallen'
p1246
aI623
aa(lp1247
S'faces'
p1248
aI624
aa(lp1249
S'turning'
p1250
aI625
aa(lp1251
S'American'
p1252
aI626
aa(lp1253
S'sunset'
p1254
aI627
aa(lp1255
S'cheetah'
p1256
aI628
aa(lp1257
S'flowers'
p1258
aI629
aa(lp1259
S'mid'
p1260
aI630
aa(lp1261
S'put'
p1262
aI631
aa(lp1263
S'pair'
p1264
aI632
aa(lp1265
S'firing'
p1266
aI633
aa(lp1267
S'brushing'
p1268
aI634
aa(lp1269
S'Children'
p1270
aI635
aa(lp1271
S'prey'
p1272
aI636
aa(lp1273
S'steak'
p1274
aI637
aa(lp1275
S'wings'
p1276
aI638
aa(lp1277
S'elderly'
p1278
aI639
aa(lp1279
S'size'
p1280
aI640
aa(lp1281
S'indoors'
p1282
aI641
aa(lp1283
S'someone'
p1284
aI642
aa(lp1285
S'steps'
p1286
aI643
aa(lp1287
S'perched'
p1288
aI644
aa(lp1289
S'cheerfully'
p1290
aI645
aa(lp1291
S'painting'
p1292
aI646
aa(lp1293
S'mechanical'
p1294
aI647
aa(lp1295
S'catch'
p1296
aI648
aa(lp1297
S'basketball'
p1298
aI649
aa(lp1299
S'stand'
p1300
aI650
aa(lp1301
S'newspapers'
p1302
aI651
aa(lp1303
S'distance'
p1304
aI652
aa(lp1305
S'photo'
p1306
aI653
aa(lp1307
S'construction'
p1308
aI654
aa(lp1309
S'tomatoes'
p1310
aI655
aa(lp1311
S'brush'
p1312
aI656
aa(lp1313
S'corndogs'
p1314
aI657
aa(lp1315
S'wire'
p1316
aI658
aa(lp1317
S'collar'
p1318
aI659
aa(lp1319
S'cardboard'
p1320
aI660
aa(lp1321
S'bear'
p1322
aI661
aa(lp1323
S'outdoor'
p1324
aI662
aa(lp1325
S'mixer'
p1326
aI663
aa(lp1327
S'teams'
p1328
aI664
aa(lp1329
S'curiously'
p1330
aI665
aa(lp1331
S'cans'
p1332
aI666
aa(lp1333
S'grazing'
p1334
aI667
aa(lp1335
S'cell'
p1336
aI668
aa(lp1337
S'buckets'
p1338
aI669
aa(lp1339
S'cold'
p1340
aI670
aa(lp1341
S'wind'
p1342
aI671
aa(lp1343
S'towards'
p1344
aI672
aa(lp1345
S'rinsing'
p1346
aI673
aa(lp1347
S'skinned'
p1348
aI674
aa(lp1349
S'equipment'
p1350
aI675
aa(lp1351
S'telephone'
p1352
aI676
aa(lp1353
S'sound'
p1354
aI677
aa(lp1355
S'sheep'
p1356
aI678
aa(lp1357
S'climbed'
p1358
aI679
aa(lp1359
S'flower'
p1360
aI680
aa(lp1361
S'gold'
p1362
aI681
aa(lp1363
S'bank'
p1364
aI682
aa(lp1365
S'attentively'
p1366
aI683
aa(lp1367
S'juice'
p1368
aI684
aa(lp1369
S'crawling'
p1370
aI685
aa(lp1371
S'underwater'
p1372
aI686
aa(lp1373
S'low'
p1374
aI687
aa(lp1375
S'looks'
p1376
aI688
aa(lp1377
S'steep'
p1378
aI689
aa(lp1379
S'far'
p1380
aI690
aa(lp1381
S'lens'
p1382
aI691
aa(lp1383
S'tunnel'
p1384
aI692
aa(lp1385
S'gathering'
p1386
aI693
aa(lp1387
S'binoculars'
p1388
aI694
aa(lp1389
S'friends'
p1390
aI695
aa(lp1391
S'rest'
p1392
aI696
aa(lp1393
S'sprinkling'
p1394
aI697
aa(lp1395
S'drunk'
p1396
aI698
aa(lp1397
S'thick'
p1398
aI699
aa(lp1399
S'busy'
p1400
aI700
aa(lp1401
S'hungrily'
p1402
aI701
aa(lp1403
S'tattoos'
p1404
aI702
aa(lp1405
S'concrete'
p1406
aI703
aa(lp1407
S'past'
p1408
aI704
aa(lp1409
S'missing'
p1410
aI705
aa(lp1411
S'store'
p1412
aI706
aa(lp1413
S'diving'
p1414
aI707
aa(lp1415
S'placed'
p1416
aI708
aa(lp1417
S'bearded'
p1418
aI709
aa(lp1419
S'burning'
p1420
aI710
aa(lp1421
S'fire'
p1422
aI711
aa(lp1423
S'package'
p1424
aI712
aa(lp1425
S'following'
p1426
aI713
aa(lp1427
S'board'
p1428
aI714
aa(lp1429
S'persons'
p1430
aI715
aa(lp1431
S'headphones'
p1432
aI716
aa(lp1433
S'direction'
p1434
aI717
aa(lp1435
S'have'
p1436
aI718
aa(lp1437
S'games'
p1438
aI719
aa(lp1439
S'mask'
p1440
aI720
aa(lp1441
S'spraying'
p1442
aI721
aa(lp1443
S'combing'
p1444
aI722
aa(lp1445
S'sport'
p1446
aI723
aa(lp1447
S'typing'
p1448
aI724
aa(lp1449
S'sweater'
p1450
aI725
aa(lp1451
S'half'
p1452
aI726
aa(lp1453
S'birdcage'
p1454
aI727
aa(lp1455
S'competing'
p1456
aI728
aa(lp1457
S'ring'
p1458
aI729
aa(lp1459
S'frolicking'
p1460
aI730
aa(lp1461
S'stopping'
p1462
aI731
aa(lp1463
S'chili'
p1464
aI732
aa(lp1465
S'dry'
p1466
aI733
aa(lp1467
S'male'
p1468
aI734
aa(lp1469
S'carriage'
p1470
aI735
aa(lp1471
S'pipe'
p1472
aI736
aa(lp1473
S'Christmas'
p1474
aI737
aa(lp1475
S'tongue'
p1476
aI738
aa(lp1477
S'metal'
p1478
aI739
aa(lp1479
S'elephant'
p1480
aI740
aa(lp1481
S'fan'
p1482
aI741
aa(lp1483
S'fingers'
p1484
aI742
aa(lp1485
S'magic'
p1486
aI743
aa(lp1487
S'sports'
p1488
aI744
aa(lp1489
S'videos'
p1490
aI745
aa(lp1491
S'wedding'
p1492
aI746
aa(lp1493
S'classroom'
p1494
aI747
aa(lp1495
S'cameras'
p1496
aI748
aa(lp1497
S'banging'
p1498
aI749
aa(lp1499
S'cereal'
p1500
aI750
aa(lp1501
S'keeping'
p1502
aI751
aa(lp1503
S'garden'
p1504
aI752
aa(lp1505
S'setting'
p1506
aI753
aa(lp1507
S'brick'
p1508
aI754
aa(lp1509
S'dish'
p1510
aI755
aa(lp1511
S'driven'
p1512
aI756
aa(lp1513
S'knives'
p1514
aI757
aa(lp1515
S'mountains'
p1516
aI758
aa(lp1517
S'subject'
p1518
aI759
aa(lp1519
S'flapping'
p1520
aI760
aa(lp1521
S'straw'
p1522
aI761
aa(lp1523
S'feet'
p1524
aI762
aa(lp1525
S'cigarette'
p1526
aI763
aa(lp1527
S'rink'
p1528
aI764
aa(lp1529
S'pacing'
p1530
aI765
aa(lp1531
S'blowing'
p1532
aI766
aa(lp1533
S'horses'
p1534
aI767
aa(lp1535
S'song'
p1536
aI768
aa(lp1537
S'exercising'
p1538
aI769
aa(lp1539
S'sparring'
p1540
aI770
aa(lp1541
S'kickboxing'
p1542
aI771
aa(lp1543
S'woods'
p1544
aI772
aa(lp1545
S'suits'
p1546
aI773
aa(lp1547
S'makes'
p1548
aI774
aa(lp1549
S'karate'
p1550
aI775
aa(lp1551
S'blocks'
p1552
aI776
aa(lp1553
S'tray'
p1554
aI777
aa(lp1555
S'line'
p1556
aI778
aa(lp1557
S'middle'
p1558
aI779
aa(lp1559
S'eyelid'
p1560
aI780
aa(lp1561
S'martial'
p1562
aI781
aa(lp1563
S'arts'
p1564
aI782
aa(lp1565
S'breaded'
p1566
aI783
aa(lp1567
S'airplane'
p1568
aI784
aa(lp1569
S'furry'
p1570
aI785
aa(lp1571
S'vest'
p1572
aI786
aa(lp1573
S'bee'
p1574
aI787
aa(lp1575
S'stove'
p1576
aI788
aa(lp1577
S'tying'
p1578
aI789
aa(lp1579
S'sweatshirt'
p1580
aI790
aa(lp1581
S'passionately'
p1582
aI791
aa(lp1583
S'lion'
p1584
aI792
aa(lp1585
S'wilderness'
p1586
aI793
aa(lp1587
S'pandas'
p1588
aI794
aa(lp1589
S'carelessly'
p1590
aI795
aa(lp1591
S'really'
p1592
aI796
aa(lp1593
S'bottom'
p1594
aI797
aa(lp1595
S'Jockeys'
p1596
aI798
aa(lp1597
S'listening'
p1598
aI799
aa(lp1599
S'completely'
p1600
aI800
aa(lp1601
S'dangerously'
p1602
aI801
aa(lp1603
S'event'
p1604
aI802
aa(lp1605
S'mostly'
p1606
aI803
aa(lp1607
S'cap'
p1608
aI804
aa(lp1609
S'sea'
p1610
aI805
aa(lp1611
S'necklace'
p1612
aI806
aa(lp1613
S'logs'
p1614
aI807
aa(lp1615
S'hugging'
p1616
aI808
aa(lp1617
S'podium'
p1618
aI809
aa(lp1619
S'sharpening'
p1620
aI810
aa(lp1621
S'buttering'
p1622
aI811
aa(lp1623
S'barren'
p1624
aI812
aa(lp1625
S'earrings'
p1626
aI813
aa(lp1627
S'swamp'
p1628
aI814
aa(lp1629
S'seat'
p1630
aI815
aa(lp1631
S'squirt'
p1632
aI816
aa(lp1633
S'groom'
p1634
aI817
aa(lp1635
S'shoe'
p1636
aI818
aa(lp1637
S'desert'
p1638
aI819
aa(lp1639
S'plane'
p1640
aI820
aa(lp1641
S'peacefully'
p1642
aI821
aa(lp1643
S'curb'
p1644
aI822
aa(lp1645
S'eye'
p1646
aI823
aa(lp1647
S'watermelon'
p1648
aI824
aa(lp1649
S'trying'
p1650
aI825
aa(lp1651
S'sewing'
p1652
aI826
aa(lp1653
S'silencer'
p1654
aI827
aa(lp1655
S'lifting'
p1656
aI828
aa(lp1657
S'pasture'
p1658
aI829
aa(lp1659
S'Different'
p1660
aI830
aa(lp1661
S'teens'
p1662
aI831
aa(lp1663
S'object'
p1664
aI832
aa(lp1665
S'steadily'
p1666
aI833
aa(lp1667
S'climber'
p1668
aI834
aa(lp1669
S'several'
p1670
aI835
aa(lp1671
S'jumper'
p1672
aI836
aa(lp1673
S'singer'
p1674
aI837
aa(lp1675
S'protective'
p1676
aI838
aa(lp1677
S'rising'
p1678
aI839
aa(lp1679
S'pony'
p1680
aI840
aa(lp1681
S'naked'
p1682
aI841
aa(lp1683
S'log'
p1684
aI842
aa(lp1685
S'inline'
p1686
aI843
aa(lp1687
S'smoking'
p1688
aI844
aa(lp1689
S'skates'
p1690
aI845
aa(lp1691
S'waving'
p1692
aI846
aa(lp1693
S'landscape'
p1694
aI847
aa(lp1695
S'handstand'
p1696
aI848
aa(lp1697
S'map'
p1698
aI849
aa(lp1699
S'begging'
p1700
aI850
aa(lp1701
S'rugby'
p1702
aI851
aa(lp1703
S'hind'
p1704
aI852
aa(lp1705
S'shopping'
p1706
aI853
aa(lp1707
S'bikinis'
p1708
aI854
aa(lp1709
S'racer'
p1710
aI855
aa(lp1711
S'four'
p1712
aI856
aa(lp1713
S'clear'
p1714
aI857
aa(lp1715
S'cement'
p1716
aI858
aa(lp1717
S'photographers'
p1718
aI859
aa(lp1719
S'backpack'
p1720
aI860
aa(lp1721
S'bathing'
p1722
aI861
aa(lp1723
S'beers'
p1724
aI862
aa(lp1725
S'tube'
p1726
aI863
aa(lp1727
S'saddle'
p1728
aI864
aa(lp1729
S'tambourines'
p1730
aI865
aa(lp1731
S'beer'
p1732
aI866
aa(lp1733
S'deep'
p1734
aI867
aa(lp1735
S'counter'
p1736
aI868
aa(lp1737
S'drilling'
p1738
aI869
aa(lp1739
S'droplets'
p1740
aI870
aa(lp1741
S'added'
p1742
aI871
aa(lp1743
S'volleyball'
p1744
aI872
aa(lp1745
S'waterskiing'
p1746
aI873
aa(lp1747
S'gift'
p1748
aI874
aa(lp1749
S'right'
p1750
aI875
aa(lp1751
S'tongues'
p1752
aI876
aa(lp1753
S'drawer'
p1754
aI877
aa(lp1755
S'paws'
p1756
aI878
aa(lp1757
S'inflatable'
p1758
aI879
aa(lp1759
S'rifle'
p1760
aI880
aa(lp1761
S'video'
p1762
aI881
aa(lp1763
S'sink'
p1764
aI882
aa(lp1765
S'weapon'
p1766
aI883
aa(lp1767
S'badger'
p1768
aI884
aa(lp1769
S'sawing'
p1770
aI885
aa(lp1771
S'mat'
p1772
aI886
aa(lp1773
S'base'
p1774
aI887
aa(lp1775
S'bare'
p1776
aI888
aa(lp1777
S'zucchini'
p1778
aI889
aa(lp1779
S'checking'
p1780
aI890
aa(lp1781
S'turtle'
p1782
aI891
aa(lp1783
S'fist'
p1784
aI892
aa(lp1785
S'paddling'
p1786
aI893
aa(lp1787
S'snowboard'
p1788
aI894
aa(lp1789
S'parade'
p1790
aI895
aa(lp1791
S'skyline'
p1792
aI896
aa(lp1793
S'clumsily'
p1794
aI897
aa(lp1795
S'dock'
p1796
aI898
aa(lp1797
S'case'
p1798
aI899
aa(lp1799
S'surface'
p1800
aI900
aa(lp1801
S'internet'
p1802
aI901
aa(lp1803
S'tearing'
p1804
aI902
aa(lp1805
S'wagon'
p1806
aI903
aa(lp1807
S'sleeping'
p1808
aI904
aa(lp1809
S'toddlers'
p1810
aI905
aa(lp1811
S'muscular'
p1812
aI906
aa(lp1813
S'tank'
p1814
aI907
aa(lp1815
S'leafless'
p1816
aI908
aa(lp1817
S'trainer'
p1818
aI909
aa(lp1819
S'performed'
p1820
aI910
aa(lp1821
S'plants'
p1822
aI911
aa(lp1823
S'cheering'
p1824
aI912
aa(lp1825
S'chaps'
p1826
aI913
aa(lp1827
S'plate'
p1828
aI914
aa(lp1829
S'playfully'
p1830
aI915
aa(lp1831
S'rodeo'
p1832
aI916
aa(lp1833
S'darkened'
p1834
aI917
aa(lp1835
S'market'
p1836
aI918
aa(lp1837
S'muzzle'
p1838
aI919
aa(lp1839
S'kayak'
p1840
aI920
aa(lp1841
S'shredded'
p1842
aI921
aa(lp1843
S'tofu'
p1844
aI922
aa(lp1845
S'intensely'
p1846
aI923
aa(lp1847
S'toe'
p1848
aI924
aa(lp1849
S'trash'
p1850
aI925
aa(lp1851
S'pocket'
p1852
aI926
aa(lp1853
S'barrel'
p1854
aI927
aa(lp1855
S'severing'
p1856
aI928
aa(lp1857
S'circles'
p1858
aI929
aa(lp1859
S'pet'
p1860
aI930
aa(lp1861
S'folding'
p1862
aI931
aa(lp1863
S'lamp'
p1864
aI932
aa(lp1865
S'kissing'
p1866
aI933
aa(lp1867
S'drinks'
p1868
aI934
aa(lp1869
S'sprinting'
p1870
aI935
aa(lp1871
S'angels'
p1872
aI936
aa(lp1873
S'cook'
p1874
aI937
aa(lp1875
S'laying'
p1876
aI938
aa(lp1877
S'skiing'
p1878
aI939
aa(lp1879
S'stairs'
p1880
aI940
aa(lp1881
S'sharp'
p1882
aI941
aa(lp1883
S'hay'
p1884
aI942
aa(lp1885
S'exercises'
p1886
aI943
aa(lp1887
S'pinwheel'
p1888
aI944
aa(lp1889
S'crane'
p1890
aI945
aa(lp1891
S'Eggs'
p1892
aI946
aa(lp1893
S'gnawing'
p1894
aI947
aa(lp1895
S'dead'
p1896
aI948
aa(lp1897
S'strange'
p1898
aI949
aa(lp1899
S'go-kart'
p1900
aI950
aa(lp1901
S'cabinet'
p1902
aI951
aa(lp1903
S'great'
p1904
aI952
aa(lp1905
S'chicken'
p1906
aI953
aa(lp1907
S'duck'
p1908
aI954
aa(lp1909
S'float'
p1910
aI955
aa(lp1911
S'trotting'
p1912
aI956
aa(lp1913
S'friend'
p1914
aI957
aa(lp1915
S'animals'
p1916
aI958
aa(lp1917
S'grand'
p1918
aI959
aa(lp1919
S'patterned'
p1920
aI960
aa(lp1921
S'cheeks'
p1922
aI961
aa(lp1923
S'there'
p1924
aI962
aa(lp1925
S'shrimps'
p1926
aI963
aa(lp1927
S'beautiful'
p1928
aI964
aa(lp1929
S'smile'
p1930
aI965
aa(lp1931
S'opponent'
p1932
aI966
aa(lp1933
S'Adults'
p1934
aI967
aa(lp1935
S'olive'
p1936
aI968
aa(lp1937
S'silent'
p1938
aI969
aa(lp1939
S'shrimp'
p1940
aI970
aa(lp1941
S'scrubbing'
p1942
aI971
aa(lp1943
S'lone'
p1944
aI972
aa(lp1945
S'wetsuit'
p1946
aI973
aa(lp1947
S'patches'
p1948
aI974
aa(lp1949
S'waking'
p1950
aI975
aa(lp1951
S'rally'
p1952
aI976
aa(lp1953
S'terrain'
p1954
aI977
aa(lp1955
S'contains'
p1956
aI978
aa(lp1957
S'stuck'
p1958
aI979
aa(lp1959
S'jetski'
p1960
aI980
aa(lp1961
S'spanking'
p1962
aI981
aa(lp1963
S'poodles'
p1964
aI982
aa(lp1965
S'lavender'
p1966
aI983
aa(lp1967
S'shoeless'
p1968
aI984
aa(lp1969
S'tugging'
p1970
aI985
aa(lp1971
S'coming'
p1972
aI986
aa(lp1973
S'tackling'
p1974
aI987
aa(lp1975
S'make-up'
p1976
aI988
aa(lp1977
S'bend'
p1978
aI989
aa(lp1979
S'leading'
p1980
aI990
aa(lp1981
S'shade'
p1982
aI991
aa(lp1983
S'gallery'
p1984
aI992
aa(lp1985
S'bucket'
p1986
aI993
aa(lp1987
S'pole'
p1988
aI994
aa(lp1989
S'Women'
p1990
aI995
aa(lp1991
S'strongly'
p1992
aI996
aa(lp1993
S'art'
p1994
aI997
aa(lp1995
S'rail'
p1996
aI998
aa(lp1997
S'fireplace'
p1998
aI999
aa(lp1999
S'stack'
p2000
aI1000
aa(lp2001
S'happy'
p2002
aI1001
aa(lp2003
S'infant'
p2004
aI1002
aa(lp2005
S'teenager'
p2006
aI1003
aa(lp2007
S'participating'
p2008
aI1004
aa(lp2009
S'basket'
p2010
aI1005
aa(lp2011
S'barbells'
p2012
aI1006
aa(lp2013
S'lemon'
p2014
aI1007
aa(lp2015
S'aisle'
p2016
aI1008
aa(lp2017
S'pine'
p2018
aI1009
aa(lp2019
S'rack'
p2020
aI1010
aa(lp2021
S'probably'
p2022
aI1011
aa(lp2023
S'microwave'
p2024
aI1012
aa(lp2025
S'different'
p2026
aI1013
aa(lp2027
S'about'
p2028
aI1014
aa(lp2029
S'Somebody'
p2030
aI1015
aa(lp2031
S'panel'
p2032
aI1016
aa(lp2033
S'pedestrians'
p2034
aI1017
aa(lp2035
S'squirrel'
p2036
aI1018
aa(lp2037
S'thin'
p2038
aI1019
aa(lp2039
S'khaki'
p2040
aI1020
aa(lp2041
S'state'
p2042
aI1021
aa(lp2043
S'tape'
p2044
aI1022
aa(lp2045
S'cheerleader'
p2046
aI1023
aa(lp2047
S'zoo'
p2048
aI1024
aa(lp2049
S'interview'
p2050
aI1025
aa(lp2051
S'garage'
p2052
aI1026
aa(lp2053
S'poles'
p2054
aI1027
aa(lp2055
S'balcony'
p2056
aI1028
aa(lp2057
S'scenic'
p2058
aI1029
aa(lp2059
S'tiredly'
p2060
aI1030
aa(lp2061
S'rubbing'
p2062
aI1031
aa(lp2063
S'marching'
p2064
aI1032
aa(lp2065
S'watched'
p2066
aI1033
aa(lp2067
S'floats'
p2068
aI1034
aa(lp2069
S'liquid'
p2070
aI1035
aa(lp2071
S'facing'
p2072
aI1036
aa(lp2073
S'provide'
p2074
aI1037
aa(lp2075
S'camouflage'
p2076
aI1038
aa(lp2077
S'digging'
p2078
aI1039
aa(lp2079
S'hillside'
p2080
aI1040
aa(lp2081
S'play'
p2082
aI1041
aa(lp2083
S'class'
p2084
aI1042
aa(lp2085
S'peppers'
p2086
aI1043
aa(lp2087
S'baskets'
p2088
aI1044
aa(lp2089
S'blankets'
p2090
aI1045
aa(lp2091
S'female'
p2092
aI1046
aa(lp2093
S'sides'
p2094
aI1047
aa(lp2095
S'emptying'
p2096
aI1048
aa(lp2097
S'concert'
p2098
aI1049
aa(lp2099
S'wiping'
p2100
aI1050
aa(lp2101
S'candles'
p2102
aI1051
aa(lp2103
S'volleyballs'
p2104
aI1052
aa(lp2105
S'carrots'
p2106
aI1053
aa(lp2107
S'leotard'
p2108
aI1054
aa(lp2109
S'hockey'
p2110
aI1055
aa(lp2111
S'skillfully'
p2112
aI1056
aa(lp2113
S'official'
p2114
aI1057
aa(lp2115
S'spout'
p2116
aI1058
aa(lp2117
S'peel'
p2118
aI1059
aa(lp2119
S'somebody'
p2120
aI1060
aa(lp2121
S'card'
p2122
aI1061
aa(lp2123
S'toward'
p2124
aI1062
aa(lp2125
S'Rugby'
p2126
aI1063
aa(lp2127
S'hopping'
p2128
aI1064
aa(lp2129
S'webcam'
p2130
aI1065
aa(lp2131
S'outfit'
p2132
aI1066
aa(lp2133
S'unicycle'
p2134
aI1067
aa(lp2135
S'rides'
p2136
aI1068
aa(lp2137
S'fed'
p2138
aI1069
aa(lp2139
S'slice'
p2140
aI1070
aa(lp2141
S'Men'
p2142
aI1071
aa(lp2143
S'spreading'
p2144
aI1072
aa(lp2145
S'handling'
p2146
aI1073
aa(lp2147
S'exploding'
p2148
aI1074
aa(lp2149
S'trays'
p2150
aI1075
aa(lp2151
S'ATVs'
p2152
aI1076
aa(lp2153
S'cleaned'
p2154
aI1077
aa(lp2155
S'balls'
p2156
aI1078
aa(lp2157
S'pile'
p2158
aI1079
aa(lp2159
S'tackled'
p2160
aI1080
aa(lp2161
S'pig'
p2162
aI1081
aa(lp2163
S'guinea'
p2164
aI1082
aa(lp2165
S'as'
p2166
aI1083
aa(lp2167
S'tights'
p2168
aI1084
aa(lp2169
S'numbers'
p2170
aI1085
aa(lp2171
S'alone'
p2172
aI1086
aa(lp2173
S'leg'
p2174
aI1087
aa(lp2175
S'left'
p2176
aI1088
aa(lp2177
S'call'
p2178
aI1089
aa(lp2179
S'kneeling'
p2180
aI1090
aa(lp2181
S'tuxedos'
p2182
aI1091
aa(lp2183
S'creek'
p2184
aI1092
aa(lp2185
S'speeding'
p2186
aI1093
aa(lp2187
S'spotted'
p2188
aI1094
aa(lp2189
S'language'
p2190
aI1095
aa(lp2191
S'country'
p2192
aI1096
aa(lp2193
S'toad'
p2194
aI1097
aa(lp2195
S'village'
p2196
aI1098
aa(lp2197
S'backyard'
p2198
aI1099
aa(lp2199
S'only'
p2200
aI1100
aa(lp2201
S'petting'
p2202
aI1101
aa(lp2203
S'workers'
p2204
aI1102
aa(lp2205
S'overlooking'
p2206
aI1103
aa(lp2207
S'fearful'
p2208
aI1104
aa(lp2209
S'attached'
p2210
aI1105
aa(lp2211
S'pursuing'
p2212
aI1106
aa(lp2213
S'launching'
p2214
aI1107
aa(lp2215
S'rags'
p2216
aI1108
aa(lp2217
S'ferrets'
p2218
aI1109
aa(lp2219
S'eyeing'
p2220
aI1110
aa(lp2221
S'peddling'
p2222
aI1111
aa(lp2223
S'pebbly'
p2224
aI1112
aa(lp2225
S'they'
p2226
aI1113
aa(lp2227
S'post'
p2228
aI1114
aa(lp2229
S'ginger'
p2230
aI1115
aa(lp2231
S'married'
p2232
aI1116
aa(lp2233
S'sled'
p2234
aI1117
aa(lp2235
S'bandanna'
p2236
aI1118
aa(lp2237
S'rabbit'
p2238
aI1119
aa(lp2239
S'book'
p2240
aI1120
aa(lp2241
S'comfortably'
p2242
aI1121
aa(lp2243
S'position'
p2244
aI1122
aa(lp2245
S'backbends'
p2246
aI1123
aa(lp2247
S'stands'
p2248
aI1124
aa(lp2249
S'skateboarding'
p2250
aI1125
aa(lp2251
S'finger'
p2252
aI1126
aa(lp2253
S'current'
p2254
aI1127
aa(lp2255
S'lit'
p2256
aI1128
aa(lp2257
S'painted'
p2258
aI1129
aa(lp2259
S'without'
p2260
aI1130
aa(lp2261
S'headdress'
p2262
aI1131
aa(lp2263
S'hiker'
p2264
aI1132
aa(lp2265
S'spoon'
p2266
aI1133
aa(lp2267
S'homeless'
p2268
aI1134
aa(lp2269
S'fetching'
p2270
aI1135
aa(lp2271
S'cupcake'
p2272
aI1136
aa(lp2273
S'nude'
p2274
aI1137
aa(lp2275
S'torch'
p2276
aI1138
aa(lp2277
S'bikes'
p2278
aI1139
aa(lp2279
S'figures'
p2280
aI1140
aa(lp2281
S'aimlessly'
p2282
aI1141
aa(lp2283
S'blow'
p2284
aI1142
aa(lp2285
S'she'
p2286
aI1143
aa(lp2287
S'escorting'
p2288
aI1144
aa(lp2289
S'grabbing'
p2290
aI1145
aa(lp2291
S'emerging'
p2292
aI1146
aa(lp2293
S'flowing'
p2294
aI1147
aa(lp2295
S'mantel'
p2296
aI1148
aa(lp2297
S'capsicum'
p2298
aI1149
aa(lp2299
S'blades'
p2300
aI1150
aa(lp2301
S'cricket'
p2302
aI1151
aa(lp2303
S'cooked'
p2304
aI1152
aa(lp2305
S'cop'
p2306
aI1153
aa(lp2307
S'drill'
p2308
aI1154
aa(lp2309
S'police'
p2310
aI1155
aa(lp2311
S'bit'
p2312
aI1156
aa(lp2313
S'tiny'
p2314
aI1157
aa(lp2315
S'skier'
p2316
aI1158
aa(lp2317
S'obstacle'
p2318
aI1159
aa(lp2319
S'logos'
p2320
aI1160
aa(lp2321
S'sponsor'
p2322
aI1161
aa(lp2323
S'praying'
p2324
aI1162
aa(lp2325
S'doll'
p2326
aI1163
aa(lp2327
S'scoring'
p2328
aI1164
aa(lp2329
S'work'
p2330
aI1165
aa(lp2331
S'erasing'
p2332
aI1166
aa(lp2333
S'parading'
p2334
aI1167
aa(lp2335
S'ramps'
p2336
aI1168
aa(lp2337
S'headband'
p2338
aI1169
aa(lp2339
S'related'
p2340
aI1170
aa(lp2341
S'rough'
p2342
aI1171
aa(lp2343
S'wild'
p2344
aI1172
aa(lp2345
S'books'
p2346
aI1173
aa(lp2347
S'himself'
p2348
aI1174
aa(lp2349
S'doctors'
p2350
aI1175
aa(lp2351
S'windows'
p2352
aI1176
aa(lp2353
S'excitedly'
p2354
aI1177
aa(lp2355
S'snapping'
p2356
aI1178
aa(lp2357
S'sniffing'
p2358
aI1179
aa(lp2359
S'vertical'
p2360
aI1180
aa(lp2361
S'veil'
p2362
aI1181
aa(lp2363
S'screwing'
p2364
aI1182
aa(lp2365
S'bay'
p2366
aI1183
aa(lp2367
S'recreation'
p2368
aI1184
aa(lp2369
S'beret'
p2370
aI1185
aa(lp2371
S'Pedestrians'
p2372
aI1186
aa(lp2373
S'malnourished'
p2374
aI1187
aa(lp2375
S'gloves'
p2376
aI1188
aa(lp2377
S'kick'
p2378
aI1189
aa(lp2379
S'traffic'
p2380
aI1190
aa(lp2381
S'bubble'
p2382
aI1191
aa(lp2383
S'jam'
p2384
aI1192
aa(lp2385
S'pyramid-shaped'
p2386
aI1193
aa(lp2387
S'pyramid'
p2388
aI1194
aa(lp2389
S'boots'
p2390
aI1195
aa(lp2391
S'tire'
p2392
aI1196
aa(lp2393
S'idling'
p2394
aI1197
aa(lp2395
S'preteen'
p2396
aI1198
aa(lp2397
S'seeking'
p2398
aI1199
aa(lp2399
S'others'
p2400
aI1200
aa(lp2401
S'whisking'
p2402
aI1201
aa(lp2403
S'buttered'
p2404
aI1202
aa(lp2405
S'loaves'
p2406
aI1203
aa(lp2407
S'twin'
p2408
aI1204
aa(lp2409
S'saucer'
p2410
aI1205
aa(lp2411
S'granting'
p2412
aI1206
aa(lp2413
S'knocked'
p2414
aI1207
aa(lp2415
S'pack'
p2416
aI1208
aa(lp2417
S'faced'
p2418
aI1209
aa(lp2419
S'tower'
p2420
aI1210
aa(lp2421
S'moustache'
p2422
aI1211
aa(lp2423
S'breeds'
p2424
aI1212
aa(lp2425
S'fly'
p2426
aI1213
aa(lp2427
S'heart'
p2428
aI1214
aa(lp2429
S'five'
p2430
aI1215
aa(lp2431
S'males'
p2432
aI1216
aa(lp2433
S'below'
p2434
aI1217
aa(lp2435
S'skipping'
p2436
aI1218
aa(lp2437
S'Arabic'
p2438
aI1219
aa(lp2439
S'watering'
p2440
aI1220
aa(lp2441
S'mountainside'
p2442
aI1221
aa(lp2443
S'formation'
p2444
aI1222
aa(lp2445
S'Rollerbladers'
p2446
aI1223
aa(lp2447
S'ponytail'
p2448
aI1224
aa(lp2449
S'joyfully'
p2450
aI1225
aa(lp2451
S'accessories'
p2452
aI1226
aa(lp2453
S'cross'
p2454
aI1227
aa(lp2455
S'hooded'
p2456
aI1228
aa(lp2457
S'surf'
p2458
aI1229
aa(lp2459
S'boa'
p2460
aI1230
aa(lp2461
S'church'
p2462
aI1231
aa(lp2463
S'basement'
p2464
aI1232
aa(lp2465
S'camels'
p2466
aI1233
aa(lp2467
S'perching'
p2468
aI1234
aa(lp2469
S'helmeted'
p2470
aI1235
aa(lp2471
S'mouths'
p2472
aI1236
aa(lp2473
S'raised'
p2474
aI1237
aa(lp2475
S'Egyptian'
p2476
aI1238
aa(lp2477
S'roadway'
p2478
aI1239
aa(lp2479
S'many'
p2480
aI1240
aa(lp2481
S'hut'
p2482
aI1241
aa(lp2483
S'gathered'
p2484
aI1242
aa(lp2485
S'enjoying'
p2486
aI1243
aa(lp2487
S'afghan'
p2488
aI1244
aa(lp2489
S'bell'
p2490
aI1245
aa(lp2491
S'poured'
p2492
aI1246
aa(lp2493
S'experiencing'
p2494
aI1247
aa(lp2495
S'Mimes'
p2496
aI1248
aa(lp2497
S'squirting'
p2498
aI1249
aa(lp2499
S'fake'
p2500
aI1250
aa(lp2501
S'owner'
p2502
aI1251
aa(lp2503
S'earth'
p2504
aI1252
aa(lp2505
S'stenograph'
p2506
aI1253
aa(lp2507
S'rainbow'
p2508
aI1254
aa(lp2509
S'canoe'
p2510
aI1255
aa(lp2511
S'mixed'
p2512
aI1256
aa(lp2513
S'touchdown'
p2514
aI1257
aa(lp2515
S'dim'
p2516
aI1258
aa(lp2517
S'set'
p2518
aI1259
aa(lp2519
S'show'
p2520
aI1260
aa(lp2521
S'new'
p2522
aI1261
aa(lp2523
S'world'
p2524
aI1262
aa(lp2525
S'squatting'
p2526
aI1263
aa(lp2527
S'spitting'
p2528
aI1264
aa(lp2529
S'athletes'
p2530
aI1265
aa(lp2531
S'stadium'
p2532
aI1266
aa(lp2533
S'elegant'
p2534
aI1267
aa(lp2535
S'llama'
p2536
aI1268
aa(lp2537
S'faucet'
p2538
aI1269
aa(lp2539
S'seating'
p2540
aI1270
aa(lp2541
S'arrangement'
p2542
aI1271
aa(lp2543
S'almost'
p2544
aI1272
aa(lp2545
S'chubby'
p2546
aI1273
aa(lp2547
S'porch'
p2548
aI1274
aa(lp2549
S'laid'
p2550
aI1275
aa(lp2551
S'masonry'
p2552
aI1276
aa(lp2553
S'scarves'
p2554
aI1277
aa(lp2555
S'winter'
p2556
aI1278
aa(lp2557
S'chopped'
p2558
aI1279
aa(lp2559
S'clove'
p2560
aI1280
aa(lp2561
S'skit'
p2562
aI1281
aa(lp2563
S'skewers'
p2564
aI1282
aa(lp2565
S'teasing'
p2566
aI1283
aa(lp2567
S'helping'
p2568
aI1284
aa(lp2569
S'boards'
p2570
aI1285
aa(lp2571
S'cub'
p2572
aI1286
aa(lp2573
S'sneezing'
p2574
aI1287
aa(lp2575
S'thinking'
p2576
aI1288
aa(lp2577
S'patient'
p2578
aI1289
aa(lp2579
S'massaging'
p2580
aI1290
aa(lp2581
S'Paper'
p2582
aI1291
aa(lp2583
S'dropped'
p2584
aI1292
aa(lp2585
S'coats'
p2586
aI1293
aa(lp2587
S'reviving'
p2588
aI1294
aa(lp2589
S'sumo'
p2590
aI1295
aa(lp2591
S'cord'
p2592
aI1296
aa(lp2593
S'swimmers'
p2594
aI1297
aa(lp2595
S'celebrating'
p2596
aI1298
aa(lp2597
S'monument'
p2598
aI1299
aa(lp2599
S'swimsuit'
p2600
aI1300
aa(lp2601
S'grouping'
p2602
aI1301
aa(lp2603
S'hedgehog'
p2604
aI1302
aa(lp2605
S'power'
p2606
aI1303
aa(lp2607
S'driver'
p2608
aI1304
aa(lp2609
S'eyeshadow'
p2610
aI1305
aa(lp2611
S'doctor'
p2612
aI1306
aa(lp2613
S'rescue'
p2614
aI1307
aa(lp2615
S'broken'
p2616
aI1308
aa(lp2617
S'acrobatics'
p2618
aI1309
aa(lp2619
S'belly'
p2620
aI1310
aa(lp2621
S'fried'
p2622
aI1311
aa(lp2623
S'eggplant'
p2624
aI1312
aa(lp2625
S'coating'
p2626
aI1313
aa(lp2627
S'mixture'
p2628
aI1314
aa(lp2629
S'cattle'
p2630
aI1315
aa(lp2631
S'seabird'
p2632
aI1316
aa(lp2633
S'boiled'
p2634
aI1317
aa(lp2635
S'treading'
p2636
aI1318
aa(lp2637
S'cute'
p2638
aI1319
aa(lp2639
S'end'
p2640
aI1320
aa(lp2641
S'skunk'
p2642
aI1321
aa(lp2643
S'tortilla'
p2644
aI1322
aa(lp2645
S'incline'
p2646
aI1323
aa(lp2647
S'Seadoo'
p2648
aI1324
aa(lp2649
S'caribous'
p2650
aI1325
aa(lp2651
S'knee'
p2652
aI1326
aa(lp2653
S'arcade'
p2654
aI1327
aa(lp2655
S'handicapped'
p2656
aI1328
aa(lp2657
S'reserved'
p2658
aI1329
aa(lp2659
S'outfits'
p2660
aI1330
aa(lp2661
S'rose'
p2662
aI1331
aa(lp2663
S'flips'
p2664
aI1332
aa(lp2665
S'upon'
p2666
aI1333
aa(lp2667
S'scratching'
p2668
aI1334
aa(lp2669
S'eyebrows'
p2670
aI1335
aa(lp2671
S'boxer'
p2672
aI1336
aa(lp2673
S'dipping'
p2674
aI1337
aa(lp2675
S'hunting'
p2676
aI1338
aa(lp2677
S'Dogs'
p2678
aI1339
aa(lp2679
S'blade'
p2680
aI1340
aa(lp2681
S'goggles'
p2682
aI1341
aa(lp2683
S'corn'
p2684
aI1342
aa(lp2685
S'racquet'
p2686
aI1343
aa(lp2687
S'herbs'
p2688
aI1344
aa(lp2689
S'vast'
p2690
aI1345
aa(lp2691
S'glacial'
p2692
aI1346
aa(lp2693
S'deboning'
p2694
aI1347
aa(lp2695
S'tricycle'
p2696
aI1348
aa(lp2697
S'closing'
p2698
aI1349
aa(lp2699
S'cautiously'
p2700
aI1350
aa(lp2701
S'stenography'
p2702
aI1351
aa(lp2703
S'columns'
p2704
aI1352
aa(lp2705
S'racket'
p2706
aI1353
aa(lp2707
S'footbag'
p2708
aI1354
aa(lp2709
S'bowling'
p2710
aI1355
aa(lp2711
S'frame'
p2712
aI1356
aa(lp2713
S'flaring'
p2714
aI1357
aa(lp2715
S'goalkeeper'
p2716
aI1358
aa(lp2717
S'hose'
p2718
aI1359
aa(lp2719
S'nobody'
p2720
aI1360
aa(lp2721
S'super'
p2722
aI1361
aa(lp2723
S'rushing'
p2724
aI1362
aa(lp2725
S'soaker'
p2726
aI1363
aa(lp2727
S'snowdrift'
p2728
aI1364
aa(lp2729
S'gracefully'
p2730
aI1365
aa(lp2731
S'straps'
p2732
aI1366
aa(lp2733
S'dangling'
p2734
aI1367
aa(lp2735
S'music'
p2736
aI1368
aa(lp2737
S'whacking'
p2738
aI1369
aa(lp2739
S'eyebrow'
p2740
aI1370
aa(lp2741
S'striking'
p2742
aI1371
aa(lp2743
S'scrambling'
p2744
aI1372
aa(lp2745
S'pavement'
p2746
aI1373
aa(lp2747
S'bale'
p2748
aI1374
aa(lp2749
S'cylindrical'
p2750
aI1375
aa(lp2751
S'photograph'
p2752
aI1376
aa(lp2753
S'vending'
p2754
aI1377
aa(lp2755
S'cyclone'
p2756
aI1378
aa(lp2757
S'stirred'
p2758
aI1379
aa(lp2759
S'space'
p2760
aI1380
aa(lp2761
S'jumpsuit'
p2762
aI1381
aa(lp2763
S'policeman'
p2764
aI1382
aa(lp2765
S'hot'
p2766
aI1383
aa(lp2767
S'slipper'
p2768
aI1384
aa(lp2769
S'easel'
p2770
aI1385
aa(lp2771
S'artist'
p2772
aI1386
aa(lp2773
S'paintbrush'
p2774
aI1387
aa(lp2775
S'coverall'
p2776
aI1388
aa(lp2777
S'maracas'
p2778
aI1389
aa(lp2779
S'cucumber'
p2780
aI1390
aa(lp2781
S'walls'
p2782
aI1391
aa(lp2783
S'rapidly'
p2784
aI1392
aa(lp2785
S'woven'
p2786
aI1393
aa(lp2787
S'difficulty'
p2788
aI1394
aa(lp2789
S'headlights'
p2790
aI1395
aa(lp2791
S'pristine'
p2792
aI1396
aa(lp2793
S'dusk'
p2794
aI1397
aa(lp2795
S'poking'
p2796
aI1398
aa(lp2797
S'classic'
p2798
aI1399
aa(lp2799
S'bedroom'
p2800
aI1400
aa(lp2801
S'paved'
p2802
aI1401
aa(lp2803
S'limb'
p2804
aI1402
aa(lp2805
S'practice'
p2806
aI1403
aa(lp2807
S'dunking'
p2808
aI1404
aa(lp2809
S'spectators'
p2810
aI1405
aa(lp2811
S'match'
p2812
aI1406
aa(lp2813
S'fingernails'
p2814
aI1407
aa(lp2815
S'rowing'
p2816
aI1408
aa(lp2817
S'murals'
p2818
aI1409
aa(lp2819
S'travelling'
p2820
aI1410
aa(lp2821
S'shotgun'
p2822
aI1411
aa(lp2823
S'skull'
p2824
aI1412
aa(lp2825
S'guided'
p2826
aI1413
aa(lp2827
S'gate'
p2828
aI1414
aa(lp2829
S'aiming'
p2830
aI1415
aa(lp2831
S'silver'
p2832
aI1416
aa(lp2833
S'note'
p2834
aI1417
aa(lp2835
S'scouts'
p2836
aI1418
aa(lp2837
S'age'
p2838
aI1419
aa(lp2839
S'fun'
p2840
aI1420
aa(lp2841
S'ringers'
p2842
aI1421
aa(lp2843
S'tee'
p2844
aI1422
aa(lp2845
S'calculating'
p2846
aI1423
aa(lp2847
S'lowering'
p2848
aI1424
aa(lp2849
S'clean'
p2850
aI1425
aa(lp2851
S'content'
p2852
aI1426
aa(lp2853
S'Little'
p2854
aI1427
aa(lp2855
S'countertop'
p2856
aI1428
aa(lp2857
S'huge'
p2858
aI1429
aa(lp2859
S'tractor'
p2860
aI1430
aa(lp2861
S'tires'
p2862
aI1431
aa(lp2863
S'flipping'
p2864
aI1432
aa(lp2865
S'jet'
p2866
aI1433
aa(lp2867
S'serious'
p2868
aI1434
aa(lp2869
S'pose'
p2870
aI1435
aa(lp2871
S'color'
p2872
aI1436
aa(lp2873
S'slip'
p2874
aI1437
aa(lp2875
S'route'
p2876
aI1438
aa(lp2877
S't-ball'
p2878
aI1439
aa(lp2879
S'distant'
p2880
aI1440
aa(lp2881
S'fair'
p2882
aI1441
aa(lp2883
S'Indian'
p2884
aI1442
aa(lp2885
S'meal'
p2886
aI1443
aa(lp2887
S'upwards'
p2888
aI1444
aa(lp2889
S'hats'
p2890
aI1445
aa(lp2891
S'wok'
p2892
aI1446
aa(lp2893
S'competition'
p2894
aI1447
aa(lp2895
S'instruments'
p2896
aI1448
aa(lp2897
S'pulled'
p2898
aI1449
aa(lp2899
S'presentation'
p2900
aI1450
aa(lp2901
S'cucumbers'
p2902
aI1451
aa(lp2903
S'pistol'
p2904
aI1452
aa(lp2905
S'fitting'
p2906
aI1453
aa(lp2907
S'fixing'
p2908
aI1454
aa(lp2909
S'bonfire'
p2910
aI1455
aa(lp2911
S'dance'
p2912
aI1456
aa(lp2913
S'defending'
p2914
aI1457
aa(lp2915
S'hamster'
p2916
aI1458
aa(lp2917
S'cracked'
p2918
aI1459
aa(lp2919
S'runners'
p2920
aI1460
aa(lp2921
S'shades'
p2922
aI1461
aa(lp2923
S'teammates'
p2924
aI1462
aa(lp2925
S'checkered'
p2926
aI1463
aa(lp2927
S'rocking'
p2928
aI1464
aa(lp2929
S'barrier'
p2930
aI1465
aa(lp2931
S'shelf'
p2932
aI1466
aa(lp2933
S'funnily'
p2934
aI1467
aa(lp2935
S'chased'
p2936
aI1468
aa(lp2937
S'Small'
p2938
aI1469
aa(lp2939
S'parrot'
p2940
aI1470
aa(lp2941
S'truck'
p2942
aI1471
aa(lp2943
S'eastern'
p2944
aI1472
aa(lp2945
S'cup'
p2946
aI1473
aa(lp2947
S'practitioner'
p2948
aI1474
aa(lp2949
S'pushed'
p2950
aI1475
aa(lp2951
S'hammering'
p2952
aI1476
aa(lp2953
S'Frisbee'
p2954
aI1477
aa(lp2955
S'ignoring'
p2956
aI1478
aa(lp2957
S'scaring'
p2958
aI1479
aa(lp2959
S'dresses'
p2960
aI1480
aa(lp2961
S'Tofu'
p2962
aI1481
aa(lp2963
S'drying'
p2964
aI1482
aa(lp2965
S'enthusiastically'
p2966
aI1483
aa(lp2967
S'beige'
p2968
aI1484
aa(lp2969
S'crossed'
p2970
aI1485
aa(lp2971
S'absently'
p2972
aI1486
aa(lp2973
S'flip'
p2974
aI1487
aa(lp2975
S'lifted'
p2976
aI1488
aa(lp2977
S'extended'
p2978
aI1489
aa(lp2979
S'sticks'
p2980
aI1490
aa(lp2981
S'outward'
p2982
aI1491
aa(lp2983
S'ping'
p2984
aI1492
aa(lp2985
S'dueling'
p2986
aI1493
aa(lp2987
S'bent'
p2988
aI1494
aa(lp2989
S'pong'
p2990
aI1495
aa(lp2991
S'snowball'
p2992
aI1496
aa(lp2993
S'mound'
p2994
aI1497
aa(lp2995
S'purse'
p2996
aI1498
aa(lp2997
S'erase'
p2998
aI1499
aa(lp2999
S'fresh'
p3000
aI1500
aa(lp3001
S'crocheting'
p3002
aI1501
aa(lp3003
S'carpeted'
p3004
aI1502
aa(lp3005
S'during'
p3006
aI1503
aa(lp3007
S'stroking'
p3008
aI1504
aa(lp3009
S'bin'
p3010
aI1505
aa(lp3011
S'tricking'
p3012
aI1506
aa(lp3013
S'Various'
p3014
aI1507
aa(lp3015
S'gravel'
p3016
aI1508
aa(lp3017
S'aren'
p3018
aI1509
aa(lp3019
S'closed'
p3020
aI1510
aa(lp3021
S'square'
p3022
aI1511
aa(lp3023
S'saying'
p3024
aI1512
aa(lp3025
S'shop'
p3026
aI1513
aa(lp3027
S'furiously'
p3028
aI1514
aa(lp3029
S'fight'
p3030
aI1515
aa(lp3031
S'fearlessly'
p3032
aI1516
aa(lp3033
S'drawn'
p3034
aI1517
aa(lp3035
S'Pieces'
p3036
aI1518
aa(lp3037
S'breathlessly'
p3038
aI1519
aa(lp3039
S'waste'
p3040
aI1520
aa(lp3041
S'kennel'
p3042
aI1521
aa(lp3043
S'strumming'
p3044
aI1522
aa(lp3045
S'railing'
p3046
aI1523
aa(lp3047
S'toys'
p3048
aI1524
aa(lp3049
S'caught'
p3050
aI1525
aa(lp3051
S'sugar'
p3052
aI1526
aa(lp3053
S'upside-down'
p3054
aI1527
aa(lp3055
S'paperwork'
p3056
aI1528
aa(lp3057
S'vehicles'
p3058
aI1529
aa(lp3059
S'penciling'
p3060
aI1530
aa(lp3061
S'artificially'
p3062
aI1531
aa(lp3063
S'repairing'
p3064
aI1532
aa(lp3065
S'number'
p3066
aI1533
aa(lp3067
S'calmly'
p3068
aI1534
aa(lp3069
S'lights'
p3070
aI1535
aa(lp3071
S'Football'
p3072
aI1536
aa(lp3073
S'ladies'
p3074
aI1537
aa(lp3075
S'Kids'
p3076
aI1538
aa(lp3077
S'mitt'
p3078
aI1539
aa(lp3079
S'racers'
p3080
aI1540
aa(lp3081
S'amphitheater'
p3082
aI1541
aa(lp3083
S'Guitar'
p3084
aI1542
aa(lp3085
S'henna'
p3086
aI1543
aa(lp3087
S'Many'
p3088
aI1544
aa(lp3089
S'animated'
p3090
aI1545
aa(lp3091
S'pausing'
p3092
aI1546
aa(lp3093
S'palm'
p3094
aI1547
aa(lp3095
S'slowing'
p3096
aI1548
aa(lp3097
S'styling'
p3098
aI1549
aa(lp3099
S'motorbikes'
p3100
aI1550
aa(lp3101
S'furniture'
p3102
aI1551
aa(lp3103
S'monitor'
p3104
aI1552
aa(lp3105
S'protection'
p3106
aI1553
aa(lp3107
S'equipped'
p3108
aI1554
aa(lp3109
S'retrieving'
p3110
aI1555
aa(lp3111
S'beak'
p3112
aI1556
aa(lp3113
S'bellbottoms'
p3114
aI1557
aa(lp3115
S'puppies'
p3116
aI1558
aa(lp3117
S'surprised'
p3118
aI1559
aa(lp3119
S'swimsuits'
p3120
aI1560
aa(lp3121
S'bricks'
p3122
aI1561
aa(lp3123
S'wheeled'
p3124
aI1562
aa(lp3125
S'Asia'
p3126
aI1563
aa(lp3127
S'hikers'
p3128
aI1564
aa(lp3129
S'flag'
p3130
aI1565
aa(lp3131
S'pictures'
p3132
aI1566
aa(lp3133
S'charity'
p3134
aI1567
aa(lp3135
S'Soccer'
p3136
aI1568
aa(lp3137
S'seashore'
p3138
aI1569
aa(lp3139
S'stump'
p3140
aI1570
aa(lp3141
S'clustered'
p3142
aI1571
aa(lp3143
S'fast'
p3144
aI1572
aa(lp3145
S'roped'
p3146
aI1573
aa(lp3147
S'hardwood'
p3148
aI1574
aa(lp3149
S'lots'
p3150
aI1575
aa(lp3151
S'kiddies'
p3152
aI1576
aa(lp3153
S'raw'
p3154
aI1577
aa(lp3155
S'jewelry'
p3156
aI1578
aa(lp3157
S'suspiciously'
p3158
aI1579
aa(lp3159
S'warm'
p3160
aI1580
aa(lp3161
S'performer'
p3162
aI1581
aa(lp3163
S'cosmetics'
p3164
aI1582
aa(lp3165
S'abruptly'
p3166
aI1583
aa(lp3167
S'floating'
p3168
aI1584
aa(lp3169
S'opened'
p3170
aI1585
aa(lp3171
S'multicolor'
p3172
aI1586
aa(lp3173
S'shoulders'
p3174
aI1587
aa(lp3175
S'fancy'
p3176
aI1588
aa(lp3177
S'land'
p3178
aI1589
aa(lp3179
S'muzzles'
p3180
aI1590
aa(lp3181
S'branch'
p3182
aI1591
aa(lp3183
S'reaching'
p3184
aI1592
aa(lp3185
S'lipstick'
p3186
aI1593
aa(lp3187
S'phoning'
p3188
aI1594
aa(lp3189
S'touching'
p3190
aI1595
aa(lp3191
S'sofa'
p3192
aI1596
aa(lp3193
S'fiercely'
p3194
aI1597
aa(lp3195
S'grotto'
p3196
aI1598
aa(lp3197
S'silky'
p3198
aI1599
aa(lp3199
S'boulder'
p3200
aI1600
aa(lp3201
S'investigating'
p3202
aI1601
aa(lp3203
S'starting'
p3204
aI1602
aa(lp3205
S'snowsuits'
p3206
aI1603
aa(lp3207
S'interior'
p3208
aI1604
aa(lp3209
S'wakeboarding'
p3210
aI1605
aa(lp3211
S'guys'
p3212
aI1606
aa(lp3213
S'cleaner'
p3214
aI1607
aa(lp3215
S'shiny'
p3216
aI1608
aa(lp3217
S'crying'
p3218
aI1609
aa(lp3219
S'spinning'
p3220
aI1610
aa(lp3221
S'excitement'
p3222
aI1611
aa(lp3223
S'famous'
p3224
aI1612
aa(lp3225
S'soup'
p3226
aI1613
aa(lp3227
S'dough'
p3228
aI1614
aa(lp3229
S'hammer'
p3230
aI1615
aa(lp3231
S'accident'
p3232
aI1616
aa(lp3233
S'African'
p3234
aI1617
aa(lp3235
S'scattering'
p3236
aI1618
aa(lp3237
S'washing'
p3238
aI1619
aa(lp3239
S'smearing'
p3240
aI1620
aa(lp3241
S'south'
p3242
aI1621
aa(lp3243
S'sausages'
p3244
aI1622
aa(lp3245
S'filling'
p3246
aI1623
aa(lp3247
S'looked'
p3248
aI1624
aa(lp3249
S'Butter'
p3250
aI1625
aa(lp3251
S'strolling'
p3252
aI1626
aa(lp3253
S'plant'
p3254
aI1627
aa(lp3255
S'wrestling'
p3256
aI1628
aa(lp3257
S'digital'
p3258
aI1629
aa(lp3259
S'liner'
p3260
aI1630
aa(lp3261
S'attacking'
p3262
aI1631
aa(lp3263
S'suited'
p3264
aI1632
aa(lp3265
S'hit'
p3266
aI1633
aa(lp3267
S'shrewdly'
p3268
aI1634
aa(lp3269
S'bars'
p3270
aI1635
aa(lp3271
S'nearby'
p3272
aI1636
aa(lp3273
S'heavily'
p3274
aI1637
aa(lp3275
S'splashed'
p3276
aI1638
aa(lp3277
S'loudly'
p3278
aI1639
aa(lp3279
S'graphitized'
p3280
aI1640
aa(lp3281
S'fountains'
p3282
aI1641
aa(lp3283
S'sprayed'
p3284
aI1642
aa(lp3285
S'difficultly'
p3286
aI1643
aa(lp3287
S'pajamas'
p3288
aI1644
aa(lp3289
S'footballer'
p3290
aI1645
aa(lp3291
S'rollerbladers'
p3292
aI1646
aa(lp3293
S'daschunds'
p3294
aI1647
aa(lp3295
S'planting'
p3296
aI1648
aa(lp3297
S'leaf'
p3298
aI1649
aa(lp3299
S'Video'
p3300
aI1650
aa(lp3301
S'lining'
p3302
aI1651
aa(lp3303
S'ear'
p3304
aI1652
aa(lp3305
S'kissed'
p3306
aI1653
aa(lp3307
S'Runners'
p3308
aI1654
aa(lp3309
S'squeezing'
p3310
aI1655
aa(lp3311
S'Racers'
p3312
aI1656
aa(lp3313
S'ribbon'
p3314
aI1657
aa(lp3315
S'town'
p3316
aI1658
aa(lp3317
S'mittened'
p3318
aI1659
aa(lp3319
S'arranging'
p3320
aI1660
aa(lp3321
S'bib'
p3322
aI1661
aa(lp3323
S'sheepdog'
p3324
aI1662
aa(lp3325
S'hungry'
p3326
aI1663
aa(lp3327
S'rod'
p3328
aI1664
aa(lp3329
S'pasta'
p3330
aI1665
aa(lp3331
S'goo'
p3332
aI1666
aa(lp3333
S'farm'
p3334
aI1667
aa(lp3335
S'untying'
p3336
aI1668
aa(lp3337
S'laden'
p3338
aI1669
aa(lp3339
S'twirling'
p3340
aI1670
aa(lp3341
S'kettle'
p3342
aI1671
aa(lp3343
S'sticky'
p3344
aI1672
aa(lp3345
S'dusty'
p3346
aI1673
aa(lp3347
S'word'
p3348
aI1674
aa(lp3349
S'marsh'
p3350
aI1675
aa(lp3351
S'smeared'
p3352
aI1676
aa(lp3353
S'substance'
p3354
aI1677
aa(lp3355
S'nailing'
p3356
aI1678
aa(lp3357
S'wildly'
p3358
aI1679
aa(lp3359
S'tie'
p3360
aI1680
aa(lp3361
S'Swimmers'
p3362
aI1681
aa(lp3363
S'measuring'
p3364
aI1682
aa(lp3365
S'heels'
p3366
aI1683
aa(lp3367
S'sailing'
p3368
aI1684
aa(lp3369
S'buttons'
p3370
aI1685
aa(lp3371
S'bottles'
p3372
aI1686
aa(lp3373
S'swimmer'
p3374
aI1687
aa(lp3375
S'dancer'
p3376
aI1688
aa(lp3377
S'shaving'
p3378
aI1689
aa(lp3379
S'retriever'
p3380
aI1690
aa(lp3381
S'stuffed'
p3382
aI1691
aa(lp3383
S'jumps'
p3384
aI1692
aa(lp3385
S'burrowing'
p3386
aI1693
aa(lp3387
S'cleansing'
p3388
aI1694
aa(lp3389
S'perch'
p3390
aI1695
aa(lp3391
S'Noodles'
p3392
aI1696
aa(lp3393
S'holes'
p3394
aI1697
aa(lp3395
S'Potatoes'
p3396
aI1698
aa(lp3397
S'working'
p3398
aI1699
aa(lp3399
S'differently'
p3400
aI1700
aa(lp3401
S'teased'
p3402
aI1701
aa(lp3403
S'Cereal'
p3404
aI1702
aa(lp3405
S'mowed'
p3406
aI1703
aa(lp3407
S'buildings'
p3408
aI1704
aa(lp3409
S'bears'
p3410
aI1705
aa(lp3411
S'Skewers'
p3412
aI1706
aa(lp3413
S'sledgehammer'
p3414
aI1707
aa(lp3415
S'pull-ups'
p3416
aI1708
aa(lp3417
S'trip'
p3418
aI1709
aa(lp3419
S'range'
p3420
aI1710
aa(lp3421
S'Dirt'
p3422
aI1711
aa(lp3423
S'camping'
p3424
aI1712
aa(lp3425
S'weights'
p3426
aI1713
aa(lp3427
S'blonds'
p3428
aI1714
aa(lp3429
S'study'
p3430
aI1715
aa(lp3431
S'indoor'
p3432
aI1716
aa(lp3433
S'splashes'
p3434
aI1717
aa(lp3435
S'walks'
p3436
aI1718
aa(lp3437
S'toddling'
p3438
aI1719
aa(lp3439
S'marriage'
p3440
aI1720
aa(lp3441
S'aim'
p3442
aI1721
aa(lp3443
S'signboard'
p3444
aI1722
aa(lp3445
S'block'
p3446
aI1723
aa(lp3447
S'listlessly'
p3448
aI1724
aa(lp3449
S'arriving'
p3450
aI1725
aa(lp3451
S'quiet'
p3452
aI1726
aa(lp3453
S'cows'
p3454
aI1727
aa(lp3455
S'puking'
p3456
aI1728
aa(lp3457
S'launch'
p3458
aI1729
aa(lp3459
S'directions'
p3460
aI1730
aa(lp3461
S'This'
p3462
aI1731
aa(lp3463
S'safety'
p3464
aI1732
aa(lp3465
S'daughters'
p3466
aI1733
aa(lp3467
S'preservers'
p3468
aI1734
aa(lp3469
S'cowboys'
p3470
aI1735
aa(lp3471
S'automobile'
p3472
aI1736
aa(lp3473
S'nervously'
p3474
aI1737
aa(lp3475
S'communicating'
p3476
aI1738
aa(lp3477
S'cluster'
p3478
aI1739
aa(lp3479
S'Ferrets'
p3480
aI1740
aa(lp3481
S'school'
p3482
aI1741
aa(lp3483
S'social'
p3484
aI1742
aa(lp3485
S'lookers'
p3486
aI1743
aa(lp3487
S'plays'
p3488
aI1744
aa(lp3489
S'bald'
p3490
aI1745
aa(lp3491
S'roaring'
p3492
aI1746
aa(lp3493
S'maneuvering'
p3494
aI1747
aa(lp3495
S'fruit'
p3496
aI1748
aa(lp3497
S'storing'
p3498
aI1749
aa(lp3499
S'extravagant'
p3500
aI1750
aa(lp3501
S'revealing'
p3502
aI1751
aa(lp3503
S'foamy'
p3504
aI1752
aa(lp3505
S'cloak'
p3506
aI1753
aa(lp3507
S'flyaway'
p3508
aI1754
aa(lp3509
S'coin'
p3510
aI1755
aa(lp3511
S'dyeing'
p3512
aI1756
aa(lp3513
S'casual'
p3514
aI1757
aa(lp3515
S'angrily'
p3516
aI1758
aa(lp3517
S'holiday'
p3518
aI1759
aa(lp3519
S'older'
p3520
aI1760
aa(lp3521
S'elaborate'
p3522
aI1761
aa(lp3523
S'sniffed'
p3524
aI1762
aa(lp3525
S'noses'
p3526
aI1763
aa(lp3527
S'shouting'
p3528
aI1764
aa(lp3529
S'sprays'
p3530
aI1765
aa(lp3531
S'selling'
p3532
aI1766
aa(lp3533
S'Something'
p3534
aI1767
aa(lp3535
S'Grass'
p3536
aI1768
aa(lp3537
S'read'
p3538
aI1769
aa(lp3539
S'soldiers'
p3540
aI1770
aa(lp3541
S'owns'
p3542
aI1771
aa(lp3543
S'none'
p3544
aI1772
aa(lp3545
S'loading'
p3546
aI1773
aa(lp3547
S'veteran'
p3548
aI1774
aa(lp3549
S'midair'
p3550
aI1775
aa(lp3551
S'things'
p3552
aI1776
aa(lp3553
S'war'
p3554
aI1777
aa(lp3555
S'climbers'
p3556
aI1778
aa(lp3557
S'fashion'
p3558
aI1779
aa(lp3559
S'drum'
p3560
aI1780
aa(lp3561
S'walk'
p3562
aI1781
aa(lp3563
S'program'
p3564
aI1782
aa(lp3565
S'or'
p3566
aI1783
aa(lp3567
S'teaming'
p3568
aI1784
aa(lp3569
S'bullets'
p3570
aI1785
aa(lp3571
S'relaxing'
p3572
aI1786
aa(lp3573
S'attended'
p3574
aI1787
aa(lp3575
S'eagerly'
p3576
aI1788
aa(lp3577
S'polished'
p3578
aI1789
aa(lp3579
S'staging'
p3580
aI1790
aa(lp3581
S'losing'
p3582
aI1791
aa(lp3583
S'ropes'
p3584
aI1792
aa(lp3585
S'gymnastic'
p3586
aI1793
aa(lp3587
S'stupidly'
p3588
aI1794
aa(lp3589
S'shredding'
p3590
aI1795
aa(lp3591
S'dashing'
p3592
aI1796
aa(lp3593
S'hills'
p3594
aI1797
aa(lp3595
S'ankle'
p3596
aI1798
aa(lp3597
S'thrown'
p3598
aI1799
aa(lp3599
S'repeatedly'
p3600
aI1800
aa(lp3601
S'Eyeshadow'
p3602
aI1801
aa(lp3603
S'packed'
p3604
aI1802
aa(lp3605
S'rinsed'
p3606
aI1803
aa(lp3607
S'pitcher'
p3608
aI1804
aa(lp3609
S'prawn'
p3610
aI1805
aa(lp3611
S'bun'
p3612
aI1806
aa(lp3613
S'peppering'
p3614
aI1807
aa(lp3615
S'tattered'
p3616
aI1808
aa(lp3617
S'flight'
p3618
aI1809
aa(lp3619
S'Young'
p3620
aI1810
aa(lp3621
S'greedily'
p3622
aI1811
aa(lp3623
S'batter'
p3624
aI1812
aa(lp3625
S'Boys'
p3626
aI1813
aa(lp3627
S'grouped'
p3628
aI1814
aa(lp3629
S'heartily'
p3630
aI1815
aa(lp3631
S'passing'
p3632
aI1816
aa(lp3633
S'runner'
p3634
aI1817
aa(lp3635
S'telephonic'
p3636
aI1818
aa(lp3637
S'midspeech'
p3638
aI1819
aa(lp3639
S'herding'
p3640
aI1820
aa(lp3641
S'caged'
p3642
aI1821
aa(lp3643
S'purchasing'
p3644
aI1822
aa(lp3645
S'speech'
p3646
aI1823
aa(lp3647
S'sleeved'
p3648
aI1824
aa(lp3649
S'blurry'
p3650
aI1825
aa(lp3651
S'helmets'
p3652
aI1826
aa(lp3653
S'immobile'
p3654
aI1827
aa(lp3655
S'donations'
p3656
aI1828
aa(lp3657
S'watered'
p3658
aI1829
aa(lp3659
S'carnival'
p3660
aI1830
aa(lp3661
S'clinging'
p3662
aI1831
aa(lp3663
S'chimp'
p3664
aI1832
aa(lp3665
S'cowgirl'
p3666
aI1833
aa(lp3667
S'dunes'
p3668
aI1834
aa(lp3669
S'musician'
p3670
aI1835
aa(lp3671
S'OR'
p3672
aI1836
aa(lp3673
S'diced'
p3674
aI1837
aa(lp3675
S'dirtying'
p3676
aI1838
aa(lp3677
S'grating'
p3678
aI1839
aa(lp3679
S'bright'
p3680
aI1840
aa(lp3681
S'fearfully'
p3682
aI1841
aa(lp3683
S'camel'
p3684
aI1842
aa(lp3685
S'shunning'
p3686
aI1843
aa(lp3687
S'graffiti'
p3688
aI1844
aa(lp3689
S'blokes'
p3690
aI1845
aa(lp3691
S'beard'
p3692
aI1846
aa(lp3693
S'speedily'
p3694
aI1847
aa(lp3695
S'weather'
p3696
aI1848
aa(lp3697
S'circle'
p3698
aI1849
aa(lp3699
S'kayaking'
p3700
aI1850
aa(lp3701
S'stair'
p3702
aI1851
aa(lp3703
S'patio'
p3704
aI1852
aa(lp3705
S'requires'
p3706
aI1853
aa(lp3707
S'cards'
p3708
aI1854
aa(lp3709
S'handing'
p3710
aI1855
aa(lp3711
S'rainy'
p3712
aI1856
aa(lp3713
S'gentle'
p3714
aI1857
aa(lp3715
S'spray'
p3716
aI1858
aa(lp3717
S'waters'
p3718
aI1859
aa(lp3719
S'acting'
p3720
aI1860
aa(lp3721
S'loud'
p3722
aI1861
aa(lp3723
S'shrewd'
p3724
aI1862
aa(lp3725
S'whole'
p3726
aI1863
aa(lp3727
S'unfolding'
p3728
aI1864
aa(lp3729
S'Animals'
p3730
aI1865
aa(lp3731
S'fists'
p3732
aI1866
aa(lp3733
S'escaping'
p3734
aI1867
aa(lp3735
S'clung'
p3736
aI1868
aa(lp3737
S'sheets'
p3738
aI1869
aa(lp3739
S'cheers'
p3740
aI1870
aa(lp3741
S'granted'
p3742
aI1871
aa(lp3743
S'suffering'
p3744
aI1872
aa(lp3745
S'skate'
p3746
aI1873
aa(lp3747
S'shining'
p3748
aI1874
aa(lp3749
S'courageously'
p3750
aI1875
aa(lp3751
S'followed'
p3752
aI1876
aa(lp3753
S'schoolgirl'
p3754
aI1877
aa(lp3755
S'various'
p3756
aI1878
aa(lp3757
S'alligator'
p3758
aI1879
aa(lp3759
S'Ingredients'
p3760
aI1880
aa(lp3761
S'patting'
p3762
aI1881
aa(lp3763
S'rollerblader'
p3764
aI1882
aa(lp3765
S'plywood'
p3766
aI1883
aa(lp3767
S'whisked'
p3768
aI1884
aa(lp3769
S'targeted'
p3770
aI1885
aa(lp3771
S'playful'
p3772
aI1886
aa(lp3773
S'conversation'
p3774
aI1887
aa(lp3775
S'be'
p3776
aI1888
aa(lp3777
S'denying'
p3778
aI1889
aa(lp3779
S'battling'
p3780
aI1890
aa(lp3781
S'fully'
p3782
aI1891
aa(lp3783
S'kicked'
p3784
aI1892
aa(lp3785
S'vicinity'
p3786
aI1893
aa(lp3787
S'open-air'
p3788
aI1894
aa(lp3789
S'themselves'
p3790
aI1895
aa(lp3791
S'steel'
p3792
aI1896
aa(lp3793
S'doesn'
p3794
aI1897
aa(lp3795
S'upside'
p3796
aI1898
aa(lp3797
S'mindlessly'
p3798
aI1899
aa(lp3799
S'bred'
p3800
aI1900
aa(lp3801
S'hunger'
p3802
aI1901
aa(lp3803
S'helps'
p3804
aI1902
aa(lp3805
S'tailing'
p3806
aI1903
aa(lp3807
S'Drinking'
p3808
aI1904
aa(lp3809
S'playground'
p3810
aI1905
aa(lp3811
S'cartoon'
p3812
aI1906
aa(lp3813
S'designed'
p3814
aI1907
aa(lp3815
S'metallic'
p3816
aI1908
aa(lp3817
S'occidental'
p3818
aI1909
aa(lp3819
S'noisily'
p3820
aI1910
aa(lp3821
S'races'
p3822
aI1911
aa(lp3823
S'drummer'
p3824
aI1912
aa(lp3825
S'sung'
p3826
aI1913
aa(lp3827
S'like'
p3828
aI1914
aa(lp3829
S'jar'
p3830
aI1915
aa(lp3831
S'stitched'
p3832
aI1916
aa(lp3833
S'rusty'
p3834
aI1917
aa(lp3835
S'costumed'
p3836
aI1918
aa(lp3837
S'magician'
p3838
aI1919
aa(lp3839
S'guns'
p3840
aI1920
aa(lp3841
S'alongside'
p3842
aI1921
aa(lp3843
S'sketch'
p3844
aI1922
aa(lp3845
S'silently'
p3846
aI1923
aa(lp3847
S'voraciously'
p3848
aI1924
aa(lp3849
S'amusedly'
p3850
aI1925
aa(lp3851
S'folded'
p3852
aI1926
aa(lp3853
S'screen'
p3854
aI1927
aa(lp3855
S'backwards'
p3856
aI1928
aa(lp3857
S'skater'
p3858
aI1929
aa(lp3859
S'run'
p3860
aI1930
aa(lp3861
S'teach'
p3862
aI1931
aa(lp3863
S'via'
p3864
aI1932
aa(lp3865
S'cob'
p3866
aI1933
aa(lp3867
S'carpet'
p3868
aI1934
aa(lp3869
S'intense'
p3870
aI1935
aa(lp3871
S'oiled'
p3872
aI1936
aa(lp3873
S'restraining'
p3874
aI1937
aa(lp3875
S'ruffling'
p3876
aI1938
aa(lp3877
S'lick'
p3878
aI1939
aa(lp3879
S'patiently'
p3880
aI1940
aa(lp3881
S'hiring'
p3882
aI1941
aa(lp3883
S'crack'
p3884
aI1942
aa(lp3885
S'team'
p3886
aI1943
aa(lp3887
S'scolding'
p3888
aI1944
aa(lp3889
S'Weights'
p3890
aI1945
aa(lp3891
S'casually'
p3892
aI1946
aa(lp3893
S'spices'
p3894
aI1947
aa(lp3895
S'chatting'
p3896
aI1948
aa(lp3897
S'fasting'
p3898
aI1949
aa(lp3899
S'Mud'
p3900
aI1950
aa(lp3901
S'Hay'
p3902
aI1951
aa(lp3903
S'combed'
p3904
aI1952
aa(lp3905
S'frightening'
p3906
aI1953
aa(lp3907
S'sold'
p3908
aI1954
aa(lp3909
S'powerfully'
p3910
aI1955
aa(lp3911
S'grated'
p3912
aI1956
aa(lp3913
S'Carrots'
p3914
aI1957
aa(lp3915
S'walked'
p3916
aI1958
aa(lp3917
S'extracting'
p3918
aI1959
aa(lp3919
S'lunch'
p3920
aI1960
aa(lp3921
S'part'
p3922
aI1961
aa(lp3923
S'loving'
p3924
aI1962
aa(lp3925
S'strong'
p3926
aI1963
aa(lp3927
S'hammered'
p3928
aI1964
aa(lp3929
S'reloading'
p3930
aI1965
aa(lp3931
S'amusing'
p3932
aI1966
aa(lp3933
S'given'
p3934
aI1967
aa(lp3935
S'refusing'
p3936
aI1968
aa(lp3937
S'stationed'
p3938
aI1969
aa(lp3939
S'wears'
p3940
aI1970
aa(lp3941
S'Drinks'
p3942
aI1971
aa(lp3943
S'grabbed'
p3944
aI1972
aa(lp3945
S'go'
p3946
aI1973
aa(lp3947
S'let'
p3948
aI1974
aa(lp3949
S'amazedly'
p3950
aI1975
aa(lp3951
S'asleep'
p3952
aI1976
aa(lp3953
S'skirt'
p3954
aI1977
aa(lp3955
S'hairy'
p3956
aI1978
aa(lp3957
S'lap'
p3958
aI1979
aa(lp3959
S'armbands'
p3960
aI1980
aa(lp3961
S'smoked'
p3962
aI1981
aa(lp3963
S'bus'
p3964
aI1982
aa(lp3965
S'spilling'
p3966
aI1983
aa(lp3967
S'watch'
p3968
aI1984
aa(lp3969
S'Blue'
p3970
aI1985
aa(lp3971
S'sad'
p3972
aI1986
aa(lp3973
S'bmxs'
p3974
aI1987
aa(lp3975
S'flies'
p3976
aI1988
aa(lp3977
S'ducks'
p3978
aI1989
aa(lp3979
S'piercings'
p3980
aI1990
aa(lp3981
S'aged'
p3982
aI1991
aa(lp3983
S'peering'
p3984
aI1992
aa(lp3985
S'Sunglasses'
p3986
aI1993
aa(lp3987
S'deleting'
p3988
aI1994
aa(lp3989
S'foreground'
p3990
aI1995
aa(lp3991
S'elder'
p3992
aI1996
aa(lp3993
S'Tambourines'
p3994
aI1997
aa(lp3995
S'cloth'
p3996
aI1998
aa(lp3997
S'living'
p3998
aI1999
aa(lp3999
S'stuntman'
p4000
aI2000
aa(lp4001
S'model'
p4002
aI2001
aa(lp4003
S'enemies'
p4004
aI2002
aa(lp4005
S'grinding'
p4006
aI2003
aa(lp4007
S'rollerblades'
p4008
aI2004
aa(lp4009
S'Motorbikes'
p4010
aI2005
aa(lp4011
S'blooming'
p4012
aI2006
aa(lp4013
S'all'
p4014
aI2007
aa(lp4015
S'morning'
p4016
aI2008
aa(lp4017
S'short'
p4018
aI2009
aa(lp4019
S'training'
p4020
aI2010
aa(lp4021
S'investigate'
p4022
aI2011
aa(lp4023
S'splash'
p4024
aI2012
aa(lp4025
S'beautifully'
p4026
aI2013
aa(lp4027
S'elegantly'
p4028
aI2014
aa(lp4029
S'harping'
p4030
aI2015
aa(lp4031
S'Oil'
p4032
aI2016
aa(lp4033
S'groups'
p4034
aI2017
aa(lp4035
S'aircraft'
p4036
aI2018
aa(lp4037
S'stroked'
p4038
aI2019
aa(lp4039
S'dismantling'
p4040
aI2020
aa(lp4041
S'hurling'
p4042
aI2021
aa(lp4043
S'fencing'
p4044
aI2022
aa(lp4045
S'riders'
p4046
aI2023
aa(lp4047
S'exercise'
p4048
aI2024
aa(lp4049
S'bow'
p4050
aI2025
aa(lp4051
S'before'
p4052
aI2026
aa(lp4053
S'jumpers'
p4054
aI2027
aa(lp4055
S'raining'
p4056
aI2028
aa(lp4057
S'It'
p4058
aI2029
aa(lp4059
S'handled'
p4060
aI2030
aa(lp4061
S'lazing'
p4062
aI2031
aa(lp4063
S'disassembling'
p4064
aI2032
aa(lp4065
S'Okra'
p4066
aI2033
aa(lp4067
S'Garlic'
p4068
aI2034
aa(lp4069
S'serving'
p4070
aI2035
aa(lp4071
S'Chopped'
p4072
aI2036
aa(lp4073
S'policewomen'
p4074
aI2037
aa(lp4075
S'smashing'
p4076
aI2038
aa(lp4077
S'karaoke'
p4078
aI2039
aa(lp4079
S'staircase'
p4080
aI2040
aa(lp4081
S'challengingly'
p4082
aI2041
aa(lp4083
S'guarding'
p4084
aI2042
aa(lp4085
S'taken'
p4086
aI2043
aa(lp4087
S'flames'
p4088
aI2044
aa(lp4089
S'drag'
p4090
aI2045
aa(lp4091
S'font'
p4092
aI2046
aa(lp4093
S'motionless'
p4094
aI2047
aa(lp4095
S'cast'
p4096
aI2048
aa(lp4097
S'pitifully'
p4098
aI2049
aa(lp4099
S'licked'
p4100
aI2050
aa(lp4101
S'Fish'
p4102
aI2051
aa(lp4103
S'cubs'
p4104
aI2052
aa(lp4105
S'petted'
p4106
aI2053
aa(lp4107
S'ham'
p4108
aI2054
aa(lp4109
S'Makeup'
p4110
aI2055
aa(lp4111
S'climb'
p4112
aI2056
aa(lp4113
S'messing'
p4114
aI2057
aa(lp4115
S'roasting'
p4116
aI2058
aa(lp4117
S'win'
p4118
aI2059
aa(lp4119
S'desk'
p4120
aI2060
aa(lp4121
S'uphill'
p4122
aI2061
aa(lp4123
S'healthy'
p4124
aI2062
aa(lp4125
S'precisely'
p4126
aI2063
aa(lp4127
S'furious'
p4128
aI2064
aa(lp4129
S'yelling'
p4130
aI2065
aa(lp4131
S'pattern'
p4132
aI2066
aa(lp4133
S'fervently'
p4134
aI2067
aa(lp4135
S'falls'
p4136
aI2068
aa(lp4137
S'ride'
p4138
aI2069
aa(lp4139
S'tirelessly'
p4140
aI2070
aa(lp4141
S'tiles'
p4142
aI2071
aa(lp4143
S'Tiles'
p4144
aI2072
aa(lp4145
S'gamer'
p4146
aI2073
aa(lp4147
S'carried'
p4148
aI2074
aa(lp4149
S'boardwalk'
p4150
aI2075
aa(lp4151
S'awakening'
p4152
aI2076
aa(lp4153
S'delightedly'
p4154
aI2077
aa(lp4155
S'divinely'
p4156
aI2078
aa(lp4157
S'prawns'
p4158
aI2079
aa(lp4159
S'concentrated'
p4160
aI2080
aa(lp4161
S'areas'
p4162
aI2081
aa(lp4163
S'fluorescent'
p4164
aI2082
aa(lp4165
S'tanking'
p4166
aI2083
aa(lp4167
S'covering'
p4168
aI2084
aa(lp4169
S'home'
p4170
aI2085
aa(lp4171
S'drink'
p4172
aI2086
aa(lp4173
S'cover'
p4174
aI2087
aa(lp4175
S'marry'
p4176
aI2088
aa(lp4177
S'olives'
p4178
aI2089
aa(lp4179
S'unstitching'
p4180
aI2090
aa(lp4181
S'devouring'
p4182
aI2091
aa(lp4183
S'celebrated'
p4184
aI2092
aa(lp4185
S'look'
p4186
aI2093
aa(lp4187
S'ship'
p4188
aI2094
aa(lp4189
S'unprotective'
p4190
aI2095
aa(lp4191
S'harmlessly'
p4192
aI2096
aa(lp4193
S'massaged'
p4194
aI2097
aa(lp4195
S'relaxed'
p4196
aI2098
aa(lp4197
S'interviewer'
p4198
aI2099
aa(lp4199
S'healing'
p4200
aI2100
aa(lp4201
S'punching'
p4202
aI2101
aa(lp4203
S'spotting'
p4204
aI2102
aa(lp4205
S'failing'
p4206
aI2103
aa(lp4207
S'perform'
p4208
aI2104
aa(lp4209
S'arguing'
p4210
aI2105
aa(lp4211
S'blew'
p4212
aI2106
aa(lp4213
S'motionlessly'
p4214
aI2107
aa(lp4215
S'tied'
p4216
aI2108
aa(lp4217
S'amalgamating'
p4218
aI2109
aa(lp4219
S'leapt'
p4220
aI2110
aa(lp4221
S'manicure'
p4222
aI2111
aa(lp4223
S'boulders'
p4224
aI2112
aa(lp4225
S'Bread'
p4226
aI2113
aa(lp4227
S'shaken'
p4228
aI2114
aa(lp4229
S'bare-chested'
p4230
aI2115
aa(lp4231
S'poor'
p4232
aI2116
aa(lp4233
S'snakes'
p4234
aI2117
aa(lp4235
S'mice'
p4236
aI2118
aa(lp4237
S'exciting'
p4238
aI2119
aa(lp4239
S'removed'
p4240
aI2120
aa(lp4241
S'swings'
p4242
aI2121
aa(lp4243
S'squeezed'
p4244
aI2122
aa(lp4245
S'boredom'
p4246
aI2123
aa(lp4247
S'striping'
p4248
aI2124
aa(lp4249
S'riskily'
p4250
aI2125
aa(lp4251
S'bored'
p4252
aI2126
aa(lp4253
S'spouting'
p4254
aI2127
aa(lp4255
S'stopped'
p4256
aI2128
aa(lp4257
S'quietly'
p4258
aI2129
aa(lp4259
S'sail'
p4260
aI2130
aa(lp4261
S'reflected'
p4262
aI2131
aa(lp4263
S'peaceful'
p4264
aI2132
aa(lp4265
S'guarded'
p4266
aI2133
aa(lp4267
S'trekking'
p4268
aI2134
aa(lp4269
S'proudly'
p4270
aI2135
aa(lp4271
S'photographer'
p4272
aI2136
aa(lp4273
S'surrounding'
p4274
aI2137
aa(lp4275
S'soft'
p4276
aI2138
aa(lp4277
S'violently'
p4278
aI2139
aa(lp4279
S'spots'
p4280
aI2140
aa(lp4281
S'nicely'
p4282
aI2141
aa(lp4283
S'screaming'
p4284
aI2142
aa(lp4285
S'athletically'
p4286
aI2143
aa(lp4287
S'crazily'
p4288
aI2144
aa(lp4289
S'physical'
p4290
aI2145
aa(lp4291
S'activity'
p4292
aI2146
aa(lp4293
S'flooring'
p4294
aI2147
aa(lp4295
S'ringing'
p4296
aI2148
aa(lp4297
S'bells'
p4298
aI2149
aa(lp4299
S'insect'
p4300
aI2150
aa(lp4301
S'handed'
p4302
aI2151
aa(lp4303
S'receiving'
p4304
aI2152
aa(lp4305
S'allowed'
p4306
aI2153
aa(lp4307
S'frowning'
p4308
aI2154
aa(lp4309
S'freeing'
p4310
aI2155
aa(lp4311
S'cane'
p4312
aI2156
aa(lp4313
S'dune'
p4314
aI2157
aa(lp4315
S'tiring'
p4316
aI2158
aa(lp4317
S'priest'
p4318
aI2159
aa(lp4319
S'guide'
p4320
aI2160
aa(lp4321
S'dices'
p4322
aI2161
aa(lp4323
S'filming'
p4324
aI2162
aa(lp4325
S'Not'
p4326
aI2163
aa(lp4327
S'pigtails'
p4328
aI2164
aa(lp4329
S'depicting'
p4330
aI2165
aa(lp4331
S'snap'
p4332
aI2166
aa(lp4333
S'studied'
p4334
aI2167
aa(lp4335
S'computer'
p4336
aI2168
aa(lp4337
S'laptop'
p4338
aI2169
aa(lp4339
S'nothing'
p4340
aI2170
aa(lp4341
S'descending'
p4342
aI2171
aa(lp4343
S'effortlessly'
p4344
aI2172
aa(lp4345
S'rescues'
p4346
aI2173
aa(lp4347
S'apparel'
p4348
aI2174
aa(lp4349
S'rocker'
p4350
aI2175
aa(lp4351
S'quitting'
p4352
aI2176
aa(lp4353
S'tools'
p4354
aI2177
aa(lp4355
S'tattooed'
p4356
aI2178
aa(lp4357
S'cramped'
p4358
aI2179
aa(lp4359
S'sedan'
p4360
aI2180
aa(lp4361
S'guitarist'
p4362
aI2181
aa(lp4363
S'joyful'
p4364
aI2182
aa(lp4365
S'uncomfortable'
p4366
aI2183
aa(lp4367
S'mothers'
p4368
aI2184
aa(lp4369
S'done'
p4370
aI2185
aa(lp4371
S'customers'
p4372
aI2186
aa(lp4373
S'courageous'
p4374
aI2187
aa(lp4375
S'tough'
p4376
aI2188
aa(lp4377
S'pours'
p4378
aI2189
aa(lp4379
S'picked'
p4380
aI2190
aa(lp4381
S'lumping'
p4382
aI2191
aa(lp4383
S'Dough'
p4384
aI2192
aa(lp4385
S'sledge'
p4386
aI2193
aa(lp4387
S'cornering'
p4388
aI2194
aa(lp4389
S'corners'
p4390
aI2195
aa(lp4391
S'pianist'
p4392
aI2196
aa(lp4393
S'sharpened'
p4394
aI2197
aa(lp4395
S'measured'
p4396
aI2198
aa(lp4397
S'onstage'
p4398
aI2199
aa(lp4399
S'where'
p4400
aI2200
aa(lp4401
S'snowboarders'
p4402
aI2201
aa(lp4403
S'appealing'
p4404
aI2202
aa(lp4405
S'greatly'
p4406
aI2203
aa(lp4407
S'leap'
p4408
aI2204
aa(lp4409
S'slab'
p4410
aI2205
aa(lp4411
S'tossed'
p4412
aI2206
aa(lp4413
S'dying'
p4414
aI2207
aa(lp4415
S'rubber'
p4416
aI2208
aa(lp4417
S'eat'
p4418
aI2209
aa(lp4419
S'Masked'
p4420
aI2210
aa(lp4421
S'musical'
p4422
aI2211
aa(lp4423
S'Sign'
p4424
aI2212
aa(lp4425
S'bangs'
p4426
aI2213
aa(lp4427
S'onlookers'
p4428
aI2214
aa(lp4429
S'European'
p4430
aI2215
aa(lp4431
S'sadly'
p4432
aI2216
aa(lp4433
S'TV'
p4434
aI2217
aa(lp4435
S'Music'
p4436
aI2218
aa(lp4437
S'likes'
p4438
aI2219
aa(lp4439
S'teenagers'
p4440
aI2220
aa(lp4441
S'wrestlers'
p4442
aI2221
aa(lp4443
S'dad'
p4444
aI2222
aa(lp4445
S'circular'
p4446
aI2223
aa(lp4447
S'discarding'
p4448
aI2224
aa(lp4449
S'hurriedly'
p4450
aI2225
aa(lp4451
S'prepared'
p4452
aI2226
aa(lp4453
S'crocodiles'
p4454
aI2227
aa(lp4455
S'suite'
p4456
aI2228
aa(lp4457
S'benches'
p4458
aI2229
aa(lp4459
S'lead'
p4460
aI2230
aa(lp4461
S'pleasantly'
p4462
aI2231
aa(lp4463
S'bringing'
p4464
aI2232
aa(lp4465
S'rear'
p4466
aI2233
aa(lp4467
S'sheet'
p4468
aI2234
aa(lp4469
S'closely'
p4470
aI2235
aa(lp4471
S'dunks'
p4472
aI2236
aa(lp4473
S'discussion'
p4474
aI2237
aa(lp4475
S'dunked'
p4476
aI2238
aa(lp4477
S'shown'
p4478
aI2239
aa(lp4479
S'roping'
p4480
aI2240
aa(lp4481
S'stretching'
p4482
aI2241
aa(lp4483
S'tackle'
p4484
aI2242
aa(lp4485
S'Broccoli'
p4486
aI2243
aa(lp4487
S'while'
p4488
aI2244
aa(lp4489
S'stunts'
p4490
aI2245
aa(lp4491
S'stars'
p4492
aI2246
aa(lp4493
S'audience'
p4494
aI2247
aa(lp4495
S'cuts'
p4496
aI2248
aa(lp4497
S'piecing'
p4498
aI2249
aa(lp4499
S'barks'
p4500
aI2250
aa(lp4501
S'uninterestedly'
p4502
aI2251
aa(lp4503
S'wrapping'
p4504
aI2252
aa(lp4505
S'guitars'
p4506
aI2253
aa(lp4507
S'Seasoning'
p4508
aI2254
aa(lp4509
S'you'
p4510
aI2255
aa(lp4511
S'cannot'
p4512
aI2256
aa(lp4513
S'sit'
p4514
aI2257
aa(lp4515
S'comfortable'
p4516
aI2258
aa(lp4517
S'spotlight'
p4518
aI2259
aatRp4519
.